(lp0
(ineural
perceptron
p1
(dp2
S'inputs'
p3
(lp4
I0
aI0
aI0
aI1
aI0
aI0
aI0
aI0
aI0
aI0
aI1
aI0
aI0
aI0
aI0
aI0
aI0
aI1
aI0
aI0
aI0
aI0
aI0
aI0
aI0
aI1
aI0
aI0
aI0
aI0
aI0
aI0
aI0
aI1
aI1
aI1
aI1
aI0
aI0
aI0
aI0
aI1
aI0
aI0
aI0
aI1
aI0
aI0
aI0
aI1
aI0
aI0
aI0
aI1
aI0
aI0
aI0
aI1
aI1
aI1
aI1
aI0
aI0
aI0
aI0
aI0
aI0
aI0
aI0
aI0
aI0
aI0
aI1
asS'changed'
p5
I00
sS'weights'
p6
(lp7
F0.16167393628074458
aF-0.1597740499244458
aF-0.6211475516225325
aF-0.3581825879454059
aF0.29082154608268873
aF-0.05036693304783513
aF-0.5165566307214733
aF0.2832285271425883
aF-0.35690168854113113
aF-0.18945444710574355
aF-0.054493763514032345
aF-0.3535265945686479
aF-0.05016239820681723
aF-0.2700333501043465
aF-0.16207658121801585
aF0.26843177623284775
aF0.5610630202550374
aF0.24890567824958212
aF0.11370965624332903
aF0.7415961175882585
aF0.34663667133910414
aF-0.10147572484159403
aF0.1311265044114867
aF0.15485854756548192
aF-0.097710774963681
aF0.42451964685048604
aF-0.1465322062253347
aF-0.013866474349063105
aF-0.3448267896214022
aF0.3815430933127333
aF0.7675099071063358
aF0.42202694826311915
aF0.6121341540401611
aF0.2667402738085791
aF-0.19828532337694035
aF-0.12346068992871304
aF-1.0231590881760713
aF-0.22924221414361873
aF-0.0861311462627985
aF0.4261744102164261
aF0.24711076980296134
aF0.4908230776096275
aF-0.5721772730824715
aF-0.03965652387373489
aF-0.16719408728829846
aF-0.4785662500227763
aF-0.4029583888984024
aF-0.22678704064454291
aF0.2162852964586811
aF1.0409288750661463
aF0.11901123231089712
aF0.25836954981264815
aF0.17533225707867073
aF0.47040611932644094
aF-0.1278494853623335
aF0.5002674622544028
aF0.38986820499185815
aF0.5684437138311468
aF-0.23614414823953206
aF0.34527252793952046
aF0.15333476784217084
aF0.06586603208315324
aF-0.4001138655705128
aF-0.12828773291555293
aF0.447705914641098
aF0.40271836264105876
aF-0.02028267819281918
aF-0.2931438858602369
aF0.11034358919436478
aF0.07668353683992644
aF-0.24854144026688488
aF0.1418116478401728
aF-0.7951375456395593
asS'target'
p8
I0
sS'output'
p9
I1
sba(ineural
perceptron
p10
(dp11
g3
(lp12
I0
aI0
aI0
aI1
aI0
aI0
aI0
aI0
aI0
aI0
aI1
aI0
aI0
aI0
aI0
aI0
aI0
aI1
aI0
aI0
aI0
aI0
aI0
aI0
aI0
aI1
aI0
aI0
aI0
aI0
aI0
aI0
aI0
aI1
aI1
aI1
aI1
aI0
aI0
aI0
aI0
aI1
aI0
aI0
aI0
aI1
aI0
aI0
aI0
aI1
aI0
aI0
aI0
aI1
aI0
aI0
aI0
aI1
aI1
aI1
aI1
aI0
aI0
aI0
aI0
aI0
aI0
aI0
aI0
aI0
aI0
aI0
aI1
asg5
I00
sg6
(lp13
F-0.1724657872985247
aF-0.0611511501537433
aF-0.3114594454983467
aF-0.3151283777262832
aF-0.16728409663578395
aF-0.17150175959091263
aF-0.3274147726446265
aF0.18460691181187916
aF0.0892452810909451
aF-0.27567115826322675
aF-0.0032058420366989845
aF-0.03840882607500032
aF-0.031799328463282164
aF-0.2296002686830691
aF-0.10649536067942499
aF0.11294361578748487
aF0.046552908836774126
aF0.030477327884919986
aF0.10141779795139325
aF0.03462873818853368
aF0.27920449566207284
aF0.21645038809482636
aF0.13189814773143838
aF0.4078347074070233
aF0.3248830378305777
aF0.18800817279237625
aF0.0738648511866725
aF-0.023495312728253854
aF-0.0015276890414070501
aF0.005722726107422922
aF0.624088593862826
aF0.44537440333285616
aF0.6474376209344076
aF0.6338881529428969
aF-0.26574493266981025
aF-0.7810779944983353
aF-0.9363131871596266
aF-0.2848075507690897
aF-0.01426196117162851
aF0.3298563010376838
aF-0.1693355555761724
aF0.6253444756471435
aF-0.4097337744692978
aF-0.6684494620121308
aF-0.043465907411203736
aF-0.4179967013193501
aF0.12490974623246949
aF0.014351152005335242
aF0.07844638264251261
aF0.9077768627106522
aF0.142645965008718
aF0.08370767416278556
aF0.22592684865563
aF0.5854721286972753
aF-0.38283868676460464
aF0.33727938960342685
aF0.0949097045369128
aF0.07087001232378763
aF0.21047203893106153
aF-0.3328985448657501
aF0.15271315813601818
aF0.2490615241962906
aF-0.36522645842529833
aF0.09751355359815769
aF0.04892277711882839
aF0.29924875724429656
aF0.4954137939222346
aF-0.04228982875705313
aF-0.2008104816768088
aF-0.03800911956592791
aF-0.599204551978745
aF-0.092484135626487
aF-0.6083939190005637
asg8
I0
sg9
I-1
sba(ineural
perceptron
p14
(dp15
g3
(lp16
I0
aI0
aI0
aI1
aI0
aI0
aI0
aI0
aI0
aI0
aI1
aI0
aI0
aI0
aI0
aI0
aI0
aI1
aI0
aI0
aI0
aI0
aI0
aI0
aI0
aI1
aI0
aI0
aI0
aI0
aI0
aI0
aI0
aI1
aI1
aI1
aI1
aI0
aI0
aI0
aI0
aI1
aI0
aI0
aI0
aI1
aI0
aI0
aI0
aI1
aI0
aI0
aI0
aI1
aI0
aI0
aI0
aI1
aI1
aI1
aI1
aI0
aI0
aI0
aI0
aI0
aI0
aI0
aI0
aI0
aI0
aI0
aI1
asg5
I00
sg6
(lp17
F-0.23612862066865464
aF-0.5882485296172763
aF-0.10393258389531987
aF0.06510256138657634
aF-0.23804365344801817
aF-0.48096888468912236
aF-0.2847969322068197
aF0.6563127219100816
aF-0.3432304340909927
aF-0.5472626538925697
aF0.13081664370923413
aF-0.2808629195723851
aF-0.12286456115068463
aF-0.038752828382519616
aF-0.438404963214595
aF-0.35709327542860353
aF-0.09685793750937456
aF0.03226098319757066
aF0.24173774411196117
aF0.24247691601708424
aF0.10121431785505772
aF0.21286844667357002
aF0.36959425413076763
aF0.49224603154300794
aF0.4970732326015118
aF0.13834038783065578
aF-0.0921861217238664
aF0.2693374578868112
aF-0.03162898826142403
aF0.13752958287312572
aF0.26620456168595197
aF0.2551021554889511
aF0.1649565295338363
aF0.5406926041518216
aF-0.15527011427655305
aF-0.1448009674064628
aF-0.6774928299803332
aF-0.3719320491337247
aF-0.20798730865629275
aF0.4573666757938336
aF0.43837232579564767
aF0.26110691311574996
aF-0.27707459514877314
aF-0.4527253854880028
aF0.046315632073043816
aF-0.0394654150802978
aF0.22007100149981856
aF0.23214036006148644
aF0.07440995288971328
aF0.7946002016527445
aF0.22257716901818708
aF-0.06571213257079413
aF0.6149106273613606
aF0.11471072784644916
aF-0.7031310368260945
aF-0.2516977135893962
aF0.3636876933393993
aF0.4928878898515693
aF0.27769440425325154
aF-0.3158432615930915
aF-0.14909801345896434
aF0.6334982223938828
aF-0.3174268261078743
aF0.24810416995050036
aF0.05536678590851718
aF0.04963103130286209
aF0.6746549382277757
aF-0.16699633942519945
aF-0.011879862957084129
aF-0.21195836349101033
aF-0.11925640996777373
aF0.7176031352543619
aF-0.7994193261042524
asg8
I0
sg9
I1
sba(ineural
perceptron
p18
(dp19
g3
(lp20
I0
aI0
aI0
aI1
aI0
aI0
aI0
aI0
aI0
aI0
aI1
aI0
aI0
aI0
aI0
aI0
aI0
aI1
aI0
aI0
aI0
aI0
aI0
aI0
aI0
aI1
aI0
aI0
aI0
aI0
aI0
aI0
aI0
aI1
aI1
aI1
aI1
aI0
aI0
aI0
aI0
aI1
aI0
aI0
aI0
aI1
aI0
aI0
aI0
aI1
aI0
aI0
aI0
aI1
aI0
aI0
aI0
aI1
aI1
aI1
aI1
aI0
aI0
aI0
aI0
aI0
aI0
aI0
aI0
aI0
aI0
aI0
aI1
asg5
I00
sg6
(lp21
F0.4112882433721595
aF-0.13915943735398323
aF-0.13624585131983574
aF0.050414871500457537
aF-0.6018216160752011
aF-0.2905653115372623
aF-0.2085285729288748
aF-0.0670680912333631
aF-0.22782046375978166
aF-0.48501911705795897
aF0.01990403504932362
aF-0.4042289837411618
aF-0.035781043726379386
aF-0.03601569581592137
aF0.06875476165897522
aF0.05524790738121743
aF-0.17931034181338185
aF0.21132647280402578
aF-0.10478056731174144
aF0.10116020324265948
aF0.36069358578198263
aF-0.1138207134401857
aF0.060744313530357696
aF0.7993460484066356
aF0.03559305295940775
aF0.0069054112003092485
aF-0.16660418860477214
aF0.3307960707999956
aF0.3332627781600441
aF0.08559509287660472
aF0.37107208198157404
aF-0.3021059577102153
aF0.23563905250981182
aF0.5333802804159666
aF-0.2456791417290576
aF-0.713873182011735
aF-0.668304283410455
aF-0.12742340571347097
aF-0.007684780566642187
aF0.37024450276518683
aF0.442260269609533
aF0.45474425711277444
aF-0.09600034375129204
aF-0.18544481787361422
aF-0.4352087804507331
aF-0.11910842841730704
aF-0.24122439595458503
aF0.4308643367408902
aF0.43707976248444
aF0.5155183604775079
aF-0.21434134342960132
aF0.2435136886411379
aF-0.03964800861091926
aF0.6731456421613113
aF-0.23303699979578443
aF-0.19351702615261543
aF0.10310678554190963
aF0.007396621861444359
aF0.09277477843718593
aF0.20628347186678705
aF0.2850907838158666
aF0.14044067883058514
aF-0.3225835036662775
aF0.28597385957028565
aF0.2981188718793326
aF0.004109822432242387
aF0.1370219526658733
aF0.23418183647698224
aF0.3587599000226638
aF-0.025539678510591735
aF-0.10430090071604413
aF-0.14115904107919017
aF-0.7142957417580856
asg8
I0
sg9
I1
sba(ineural
perceptron
p22
(dp23
g3
(lp24
I0
aI0
aI0
aI1
aI0
aI0
aI0
aI0
aI0
aI0
aI1
aI0
aI0
aI0
aI0
aI0
aI0
aI1
aI0
aI0
aI0
aI0
aI0
aI0
aI0
aI1
aI0
aI0
aI0
aI0
aI0
aI0
aI0
aI1
aI1
aI1
aI1
aI0
aI0
aI0
aI0
aI1
aI0
aI0
aI0
aI1
aI0
aI0
aI0
aI1
aI0
aI0
aI0
aI1
aI0
aI0
aI0
aI1
aI1
aI1
aI1
aI0
aI0
aI0
aI0
aI0
aI0
aI0
aI0
aI0
aI0
aI0
aI1
asg5
I00
sg6
(lp25
F-0.24129759167376313
aF0.12230200700550382
aF0.018343715031465067
aF-0.44166266517007036
aF-0.2936429748246454
aF0.33067730431494224
aF-0.04945085682020103
aF0.47355680937618294
aF-0.21534818057718325
aF-0.08456570024456689
aF0.46499151514291515
aF-0.2702386012589971
aF-0.41973793059742426
aF-0.20787601249880147
aF-0.25980812185870383
aF-0.33734072487651734
aF0.36894287868697284
aF-0.028174982922449732
aF0.12232399219123875
aF0.7056004515245163
aF-0.1574168480328761
aF0.18360340406912612
aF0.4517222968523521
aF-0.01690112316301751
aF0.2172375688376405
aF0.48964039873873366
aF-0.529919331410623
aF0.37918335388519564
aF-0.29400623640608
aF0.19076878125257732
aF0.039380866425056144
aF0.007648329554308338
aF0.17585608682359033
aF0.16120172109829103
aF-0.12294323250116732
aF-0.14098358344251288
aF-0.6909958721954349
aF-0.5001972016944101
aF0.08866310151128498
aF0.588878636938271
aF0.356671284858854
aF0.2691501053172576
aF-0.005097472639043983
aF-0.1881419193540046
aF-0.19839988662465488
aF-0.4169744349084244
aF-0.28858796974998335
aF0.19507794961376754
aF-0.09848798764447633
aF0.4944445743934973
aF0.19175799537990365
aF-0.11384847360492072
aF0.3977466097560691
aF0.2907017853157522
aF-0.20190655681967604
aF-0.24252179290329973
aF0.2910734898995596
aF0.4269238197697389
aF0.15662423247682347
aF0.10402503970977214
aF-0.016573298894723743
aF0.2910331752941996
aF-0.08348938963440034
aF0.2736398593053606
aF0.22914315183273565
aF-0.0055112459227877955
aF0.05919762970424336
aF-0.17804697090933597
aF0.11935004899696895
aF-0.06357699779333836
aF-0.18525257005923512
aF-0.14115495727103874
aF-0.7788010296783825
asg8
I0
sg9
I1
sba(ineural
perceptron
p26
(dp27
g3
(lp28
I0
aI0
aI0
aI1
aI0
aI0
aI0
aI0
aI0
aI0
aI1
aI0
aI0
aI0
aI0
aI0
aI0
aI1
aI0
aI0
aI0
aI0
aI0
aI0
aI0
aI1
aI0
aI0
aI0
aI0
aI0
aI0
aI0
aI1
aI1
aI1
aI1
aI0
aI0
aI0
aI0
aI1
aI0
aI0
aI0
aI1
aI0
aI0
aI0
aI1
aI0
aI0
aI0
aI1
aI0
aI0
aI0
aI1
aI1
aI1
aI1
aI0
aI0
aI0
aI0
aI0
aI0
aI0
aI0
aI0
aI0
aI0
aI1
asg5
I00
sg6
(lp29
F-0.08856124544436761
aF-0.6138423743784787
aF0.018660996187634424
aF-0.553305134004299
aF-0.1072822191293895
aF-0.4830087469400819
aF0.1516728247612951
aF0.25581898562487526
aF-0.43023574219876914
aF-0.6676027569688943
aF-0.05176593932680151
aF-0.23078004372829156
aF-0.14700685916476414
aF-0.08253155969692293
aF-0.23178070362216355
aF-0.013085952556317091
aF-0.20315365092457202
aF-0.2975279833407246
aF0.06882665826155744
aF0.1613063727274068
aF0.5326270102645819
aF0.003484581941802574
aF-0.1955761912251511
aF0.20580522974352064
aF-0.03675973787788536
aF0.03533025878281161
aF-0.14782918813967033
aF0.19947328341872822
aF0.09686272651339076
aF0.19400838891099223
aF-0.3058716501471331
aF0.07548879782608185
aF-0.28635619541492396
aF-0.07653190697515011
aF-0.1433011475712161
aF0.13577528454975613
aF-0.11761366508764044
aF-0.26295806199113547
aF-0.024200250357167486
aF0.04376611699606871
aF-0.0974639070886446
aF-0.019666475707133136
aF-0.10389571414665087
aF0.23623916305854856
aF-0.037517935501365424
aF-0.578531111099668
aF-0.6166488884182767
aF-0.2442989662864803
aF0.5332692743803875
aF-0.2385962006373021
aF0.27992440908584915
aF0.6446271853856037
aF0.8190270318384875
aF0.8842991080271628
aF-0.2828414624881299
aF-0.18970312893117328
aF0.45519918054148434
aF-0.006070673812288048
aF0.1572187713828245
aF-0.05408164810655261
aF0.16810313168491667
aF0.15184410833548076
aF-0.06758077560443855
aF0.5360764518599693
aF0.03666528833911743
aF-0.2619745523261147
aF-0.12939698259841534
aF-0.14490564252834587
aF-0.26595119275596324
aF0.3853361128181467
aF0.3139549732080438
aF0.566047377407804
aF-0.00451125438356164
asg8
I1
sg9
I-1
sba(ineural
perceptron
p30
(dp31
g3
(lp32
I0
aI0
aI0
aI1
aI0
aI0
aI0
aI0
aI0
aI0
aI1
aI0
aI0
aI0
aI0
aI0
aI0
aI1
aI0
aI0
aI0
aI0
aI0
aI0
aI0
aI1
aI0
aI0
aI0
aI0
aI0
aI0
aI0
aI1
aI1
aI1
aI1
aI0
aI0
aI0
aI0
aI1
aI0
aI0
aI0
aI1
aI0
aI0
aI0
aI1
aI0
aI0
aI0
aI1
aI0
aI0
aI0
aI1
aI1
aI1
aI1
aI0
aI0
aI0
aI0
aI0
aI0
aI0
aI0
aI0
aI0
aI0
aI1
asg5
I00
sg6
(lp33
F0.17650124435620196
aF-0.13799429854834927
aF-0.46143860189197217
aF-0.21691614353653116
aF-0.11694997348067533
aF-0.08343207746810943
aF-0.5954774718214311
aF-0.10709063566122028
aF-0.2573713704734939
aF-0.8276893580232745
aF-0.1593878208304195
aF0.09413107974310306
aF0.39903817217034643
aF-0.02797511875337604
aF-0.4009838098394477
aF0.5368363719892147
aF0.014709929605715853
aF-0.34377095322564855
aF-0.11230115821912241
aF0.7097426168874907
aF0.3304528698659951
aF0.14979831511824765
aF0.22898624131141648
aF0.11482783065603226
aF-0.46160454711337107
aF-0.2779430501049507
aF0.0846281385414711
aF0.1260987561202426
aF-0.12063287448853739
aF-0.09407382822743357
aF0.15364924738301702
aF0.48478145950802
aF0.18160623262037823
aF-0.181167824640749
aF-0.05754908133850213
aF-0.07936130945604879
aF-0.23385483720068925
aF-0.1160976123623267
aF-0.33779718407570214
aF-0.08720650781669192
aF-0.27601428373497316
aF-0.35601804646248614
aF0.08292152979811683
aF-0.1633613224583276
aF-0.060944276032975156
aF0.1605002981031596
aF-0.7037151854248954
aF0.04730405227130599
aF0.23169391955652432
aF0.01704616653174532
aF0.5036074385522723
aF0.3699672110844926
aF-0.03166843946208135
aF0.25474255283862396
aF-0.531662689024932
aF0.25853638656648714
aF0.0459086323919308
aF-0.5099454482843682
aF-0.020081970674003236
aF0.19190954752064188
aF0.46190076664810775
aF0.004286367396121933
aF-0.5218271914161738
aF-0.17961566452153835
aF0.28878118192252156
aF0.4333652755814339
aF-0.3445112327830787
aF0.15796607779822505
aF-0.025573824659777134
aF0.13476139219877487
aF0.08708185043465261
aF0.19592612263963913
aF-0.2553483013318697
asg8
I1
sg9
I-1
sba(ineural
perceptron
p34
(dp35
g3
(lp36
I0
aI0
aI0
aI1
aI0
aI0
aI0
aI0
aI0
aI0
aI1
aI0
aI0
aI0
aI0
aI0
aI0
aI1
aI0
aI0
aI0
aI0
aI0
aI0
aI0
aI1
aI0
aI0
aI0
aI0
aI0
aI0
aI0
aI1
aI1
aI1
aI1
aI0
aI0
aI0
aI0
aI1
aI0
aI0
aI0
aI1
aI0
aI0
aI0
aI1
aI0
aI0
aI0
aI1
aI0
aI0
aI0
aI1
aI1
aI1
aI1
aI0
aI0
aI0
aI0
aI0
aI0
aI0
aI0
aI0
aI0
aI0
aI1
asg5
I00
sg6
(lp37
F0.19131133963371058
aF-0.05276212454645368
aF-0.4928365243153807
aF-0.15344984827395672
aF-0.3357889838107476
aF-0.5192024820366957
aF-0.06544359975033633
aF-0.05527923606903541
aF-0.42988379707813595
aF-0.22257630585995286
aF-0.34399749317591644
aF0.15673416141953025
aF0.16359263326553228
aF0.4386392120178285
aF-0.5809470782424048
aF0.3298977621279786
aF-0.4665076254901269
aF-0.2957331241128569
aF0.3978494017267423
aF0.17548043495738708
aF0.596946324836226
aF0.0158302901586989
aF-0.41437867117029725
aF-0.042802793017942126
aF-0.0052772082674763035
aF-0.6114673921006929
aF0.07025318244066113
aF0.30883011819484285
aF-0.03461514067852346
aF0.34613236941428294
aF-0.07393425282876163
aF0.3477688023658392
aF0.21070315278509172
aF-0.3593972377417878
aF-0.1644983393916636
aF-0.11057377571725387
aF-0.6935545777193465
aF-0.3168707667002951
aF-0.07545475235971388
aF0.45403312979191524
aF-0.2725649313508244
aF-0.03192740191584055
aF-0.05044093354390966
aF-0.2824864715290327
aF-0.2852466223123106
aF-0.18862238349410643
aF-0.70729203544674
aF-0.15513206354147682
aF-0.006515351530132184
aF-0.032870176105410556
aF0.5721695369954929
aF0.47277833169852324
aF0.6094844341526308
aF0.43719692789093023
aF-0.17653344525589454
aF0.31988362775890156
aF0.14722903676028315
aF-0.22515739148318564
aF-0.27041771832462336
aF0.27085693251041965
aF0.38115900393374424
aF-0.09785904221539163
aF-0.6791302186955518
aF-0.15007194504885393
aF0.06918107872602842
aF-0.1237750653629044
aF-0.06950822166509764
aF0.11858001493687771
aF0.1924433817667782
aF0.016805474799496834
aF0.5025176062641695
aF0.44125903175851655
aF-0.16317168523262573
asg8
I1
sg9
I-1
sba(ineural
perceptron
p38
(dp39
g3
(lp40
I0
aI0
aI0
aI1
aI0
aI0
aI0
aI0
aI0
aI0
aI1
aI0
aI0
aI0
aI0
aI0
aI0
aI1
aI0
aI0
aI0
aI0
aI0
aI0
aI0
aI1
aI0
aI0
aI0
aI0
aI0
aI0
aI0
aI1
aI1
aI1
aI1
aI0
aI0
aI0
aI0
aI1
aI0
aI0
aI0
aI1
aI0
aI0
aI0
aI1
aI0
aI0
aI0
aI1
aI0
aI0
aI0
aI1
aI1
aI1
aI1
aI0
aI0
aI0
aI0
aI0
aI0
aI0
aI0
aI0
aI0
aI0
aI1
asg5
I00
sg6
(lp41
F-0.08954758379649852
aF-0.46131569765556557
aF-0.41920457963524604
aF-0.18683501638644628
aF-0.3781999712706807
aF0.09842109225238346
aF-0.0465765305104138
aF0.3721524926593388
aF-0.15493811730521392
aF-0.6337284274968218
aF-0.47684732742222413
aF-0.07779628534959271
aF0.5371025262539
aF-0.018350599782976682
aF-0.2234487865060107
aF0.07815196234684339
aF0.17352349721156224
aF0.1164747906592571
aF0.4034445042422994
aF0.5678415039505299
aF0.4063941130872313
aF-0.1734768793933008
aF-0.8659430330333591
aF0.05386430236915263
aF0.1348900403684295
aF-0.5067372441830912
aF-0.09124667903349745
aF0.14884620551690375
aF-0.26158609710820163
aF-0.17005986404002144
aF-0.12580822597050031
aF-0.10763374453511508
aF-0.16235595063208577
aF-0.5801389658125006
aF0.14685207938458505
aF-0.41973178435182634
aF-0.2047038380925746
aF-0.24214748301144343
aF-0.5338828617310949
aF0.5784798995851648
aF-0.24618595144850433
aF-0.4225143742555555
aF-0.06835416632622417
aF0.07288336198623878
aF0.07737455953203108
aF0.1678420302244488
aF-0.6597686367952127
aF0.20451479644431533
aF-0.20036033125968222
aF0.2850324834087449
aF0.47879239555643527
aF0.6799578347497799
aF0.4646312871204854
aF0.22268193184970297
aF-0.35260856851910716
aF0.3129698912785476
aF0.09704870936722362
aF0.12283754472463722
aF-0.029244664706383025
aF0.03865103296704554
aF0.1453400169362697
aF0.5410585625399911
aF-0.5691481298350838
aF-0.22655281491754864
aF-0.13352079675760767
aF0.19867958809130867
aF-0.18253972152918008
aF0.19789945641296344
aF-0.031214196289565916
aF0.08976289002847437
aF-0.01868365557717736
aF0.26030853754970973
aF-0.3093546347449244
asg8
I1
sg9
I-1
sba(ineural
perceptron
p42
(dp43
g3
(lp44
I0
aI0
aI0
aI1
aI0
aI0
aI0
aI0
aI0
aI0
aI1
aI0
aI0
aI0
aI0
aI0
aI0
aI1
aI0
aI0
aI0
aI0
aI0
aI0
aI0
aI1
aI0
aI0
aI0
aI0
aI0
aI0
aI0
aI1
aI1
aI1
aI1
aI0
aI0
aI0
aI0
aI1
aI0
aI0
aI0
aI1
aI0
aI0
aI0
aI1
aI0
aI0
aI0
aI1
aI0
aI0
aI0
aI1
aI1
aI1
aI1
aI0
aI0
aI0
aI0
aI0
aI0
aI0
aI0
aI0
aI0
aI0
aI1
asg5
I00
sg6
(lp45
F0.2624340379933998
aF-0.5905317522840525
aF-0.42001473157374103
aF0.004571939327998327
aF-0.537003042775833
aF-0.13447623829114091
aF0.016363486748480014
aF-0.06910363890458734
aF-0.5278334270800069
aF-0.7176299656909358
aF-0.10591104733771904
aF-0.16887637795399735
aF0.25485808399218923
aF0.35081044402735606
aF-0.19249186161786488
aF-0.01236902791048847
aF-0.3853136337594697
aF-0.1512120257149149
aF0.09678227355529231
aF0.6954791121998422
aF0.6161310142876697
aF0.03173920279949373
aF0.13134874594316043
aF0.4192757949039091
aF-0.08259576141499736
aF0.060468807436520944
aF0.016445063952771708
aF0.21410793016335788
aF0.20255110132868545
aF-0.4658944790281412
aF-0.31444512146769704
aF0.09784348469556067
aF0.2919567327223245
aF0.04718576908091801
aF0.16248173348411113
aF-0.5906390211091436
aF-0.7170703711892918
aF-0.0323762424398404
aF-0.37334084235560383
aF0.20418255963097895
aF-0.4593557202805181
aF-0.3860635355599601
aF0.2220464421093961
aF0.09265717106315838
aF-0.3328932332908282
aF-0.042003323820770336
aF-0.28894879108179417
aF0.10137210615723721
aF0.055055194253231465
aF0.2612178944605654
aF0.19259541569815394
aF0.6187523616152406
aF0.629669977810823
aF0.21547875756454643
aF-0.4530124355073272
aF-0.05976131517650908
aF0.1853219600079974
aF-0.13891069848480492
aF-0.24970862483404307
aF0.04386672804725117
aF0.364548193525135
aF0.42210517478810483
aF-0.3733231820527798
aF0.33470594228175965
aF0.031193873982759458
aF0.21490016574538512
aF-0.3215577745553019
aF0.23412059396924614
aF-0.07221412920030566
aF-0.045337221891068286
aF0.09158600423585528
aF0.3123868768776068
aF-0.2800885841024404
asg8
I1
sg9
I-1
sba(ineural
perceptron
p46
(dp47
g3
(lp48
I0
aI0
aI0
aI1
aI0
aI0
aI0
aI0
aI0
aI0
aI1
aI0
aI0
aI0
aI0
aI0
aI0
aI1
aI0
aI0
aI0
aI0
aI0
aI0
aI0
aI1
aI0
aI0
aI0
aI0
aI0
aI0
aI0
aI1
aI1
aI1
aI1
aI0
aI0
aI0
aI0
aI1
aI0
aI0
aI0
aI1
aI0
aI0
aI0
aI1
aI0
aI0
aI0
aI1
aI0
aI0
aI0
aI1
aI1
aI1
aI1
aI0
aI0
aI0
aI0
aI0
aI0
aI0
aI0
aI0
aI0
aI0
aI1
asg5
I00
sg6
(lp49
F0.36302363110195435
aF-0.25250478691171363
aF0.2593899828868149
aF0.09206150753824491
aF-0.1929865228597508
aF-0.6006553445388495
aF-0.4903479542459991
aF0.3100616526738572
aF-0.04899941636400065
aF0.008210220735724479
aF-0.424180427188556
aF-0.19658029565018773
aF0.2810252940646363
aF-0.4797712662975101
aF-0.21026680166389006
aF-0.25393908269429544
aF0.047978720997458396
aF-0.33004992585059933
aF-0.25841447142488727
aF-0.08438239342537579
aF0.4574992410996024
aF0.20964356378809199
aF0.09445071643103617
aF0.13082086831379763
aF-0.08762822902568201
aF-0.3776152372365659
aF-0.04559444228161472
aF0.09216973481077237
aF-0.1701315348922251
aF0.16699923757493754
aF0.5252902691631949
aF0.21447797932237717
aF-0.39551771384466805
aF-0.4682682943930576
aF0.0022629772685521174
aF-0.5527492235095983
aF-0.6612810195635663
aF0.07370182577810612
aF0.01344408960368285
aF-0.18229199536187812
aF0.0049179495589123864
aF0.012830558498694442
aF-0.15439300571320216
aF0.020331487332622942
aF-0.05614605810661956
aF0.030326786712920346
aF-0.17844566145997698
aF0.08473412229092157
aF-0.09836518299074191
aF0.0879005141702065
aF0.6628782910886881
aF0.7674339581915604
aF0.05071978447044767
aF-0.07141724667945114
aF-0.7661063495595313
aF0.07770795179523558
aF0.10092771337244408
aF0.291112934740283
aF0.4361692162631483
aF-0.009513843384509509
aF0.15925263712809593
aF-0.0785685627050881
aF-0.3159710403697985
aF-0.005449307676112798
aF0.49882960889033934
aF0.3210744436759958
aF0.21575882485550252
aF-0.4622742078633413
aF0.09600122158949996
aF0.19765606938502586
aF0.2453734464215859
aF0.5775737274411075
aF-0.434606211430938
asg8
I2
sg9
I-1
sba(ineural
perceptron
p50
(dp51
g3
(lp52
I0
aI0
aI0
aI1
aI0
aI0
aI0
aI0
aI0
aI0
aI1
aI0
aI0
aI0
aI0
aI0
aI0
aI1
aI0
aI0
aI0
aI0
aI0
aI0
aI0
aI1
aI0
aI0
aI0
aI0
aI0
aI0
aI0
aI1
aI1
aI1
aI1
aI0
aI0
aI0
aI0
aI1
aI0
aI0
aI0
aI1
aI0
aI0
aI0
aI1
aI0
aI0
aI0
aI1
aI0
aI0
aI0
aI1
aI1
aI1
aI1
aI0
aI0
aI0
aI0
aI0
aI0
aI0
aI0
aI0
aI0
aI0
aI1
asg5
I00
sg6
(lp53
F-0.2653332350066333
aF-0.17219349019473507
aF0.1012310728010528
aF0.14170082603895323
aF-0.278222674579819
aF-0.40298693290248166
aF-0.21482228080195848
aF-0.04622800193377363
aF0.3090939558328847
aF0.31952821289609035
aF-0.0928523416206318
aF-0.02315636297801398
aF0.023126869182391405
aF-0.5434860837304113
aF0.1083064666622061
aF0.48728328697599965
aF-0.3815649885586668
aF-0.17733514306735598
aF0.15547057512751952
aF-0.20701429436939434
aF-0.2971614267004494
aF0.5940098505914899
aF0.01160724705906738
aF0.2166307696674989
aF-0.1281577339141163
aF0.0472891635590276
aF-0.2513646223533045
aF-0.25553557613368905
aF0.04162116637210779
aF-0.2288791603041443
aF0.0713543290695947
aF-0.12105271965719788
aF0.049810635581596735
aF0.06674446271584113
aF-0.03052170920325127
aF-0.33239222675966196
aF-0.8458421500620391
aF-0.012949606805845924
aF-0.5075068312253592
aF-0.17423414854330804
aF-0.01830072778835894
aF-0.4691822941279655
aF-0.369146260553997
aF-0.10727932967098629
aF0.22710561300886628
aF-0.2472959540750921
aF-0.35729701378687273
aF-0.015596777411729757
aF-0.07036217857741876
aF-0.26100849327499404
aF0.409534022602847
aF0.08024398581818944
aF0.0617951037624469
aF-0.5714781413380027
aF-0.847862183527431
aF-0.21294338742138685
aF-0.18833834678910338
aF0.1438669026524096
aF0.23353031097834234
aF0.23435598505916103
aF0.022931968415948387
aF0.07628394015667637
aF-0.29012525732715266
aF0.11615645559473149
aF0.30888534040055493
aF0.12328210018523492
aF0.09463937218901194
aF-0.2857196346732338
aF0.525301778434265
aF0.4568935954565523
aF0.6053910000498898
aF0.6176179568249482
aF-0.5525746632091749
asg8
I2
sg9
I-1
sba(ineural
perceptron
p54
(dp55
g3
(lp56
I0
aI0
aI0
aI1
aI0
aI0
aI0
aI0
aI0
aI0
aI1
aI0
aI0
aI0
aI0
aI0
aI0
aI1
aI0
aI0
aI0
aI0
aI0
aI0
aI0
aI1
aI0
aI0
aI0
aI0
aI0
aI0
aI0
aI1
aI1
aI1
aI1
aI0
aI0
aI0
aI0
aI1
aI0
aI0
aI0
aI1
aI0
aI0
aI0
aI1
aI0
aI0
aI0
aI1
aI0
aI0
aI0
aI1
aI1
aI1
aI1
aI0
aI0
aI0
aI0
aI0
aI0
aI0
aI0
aI0
aI0
aI0
aI1
asg5
I00
sg6
(lp57
F-0.12782442419536708
aF-0.4133318925239027
aF-0.14124063454238295
aF-0.3364481023474465
aF-0.29139802403831283
aF-0.17432753673283885
aF-0.5267308654712721
aF0.7012924548102926
aF0.5016606040113506
aF0.28009184447018864
aF-0.2047108970013338
aF-0.2667531699860751
aF0.265141058758776
aF-0.15105842515027593
aF-0.17809204024162661
aF0.29049967905855256
aF0.19300917693773564
aF-0.604162713561689
aF0.111264648213194
aF0.28054095197930484
aF-0.12385656181471358
aF0.06656146363716232
aF-0.388097470116855
aF0.27247987673380625
aF-0.042403261292385724
aF-0.5980953322761186
aF-0.3618868311802781
aF-0.03817428724449548
aF-0.41145774413499014
aF-0.12876873109454642
aF0.5357900635440619
aF-0.05575249332653466
aF-0.14838272479673403
aF-0.4195478305787602
aF-0.5579716989137405
aF-0.17748652191987868
aF-0.0939398749139779
aF-0.139595272975993
aF-0.40254607664571795
aF0.39884252048694535
aF0.10521750897892333
aF-0.05369253308930533
aF0.33559368991189453
aF-0.3114210655023547
aF0.39816433703600707
aF-0.2579927659573059
aF-0.3386142288987152
aF0.11228726216000191
aF-0.3732293443040767
aF0.12079709981764149
aF0.7032314132181012
aF0.3957753119720969
aF0.30994946027512105
aF-0.47833098004255975
aF-0.826597679785542
aF0.2644826047217552
aF-0.08144882877467048
aF-0.00777076449714937
aF0.6195166206304783
aF0.0007297982954514379
aF-0.13143195052366813
aF0.12422006211479038
aF0.04514255600924269
aF-0.043196779061912355
aF0.6079766626209766
aF0.6878476772290447
aF0.07260697097482337
aF-0.21351589000418497
aF0.08832493238756667
aF0.7256694094438343
aF0.04988340601420263
aF0.5641770558524651
aF-0.7331425369800284
asg8
I2
sg9
I-1
sba(ineural
perceptron
p58
(dp59
g3
(lp60
I0
aI0
aI0
aI1
aI0
aI0
aI0
aI0
aI0
aI0
aI1
aI0
aI0
aI0
aI0
aI0
aI0
aI1
aI0
aI0
aI0
aI0
aI0
aI0
aI0
aI1
aI0
aI0
aI0
aI0
aI0
aI0
aI0
aI1
aI1
aI1
aI1
aI0
aI0
aI0
aI0
aI1
aI0
aI0
aI0
aI1
aI0
aI0
aI0
aI1
aI0
aI0
aI0
aI1
aI0
aI0
aI0
aI1
aI1
aI1
aI1
aI0
aI0
aI0
aI0
aI0
aI0
aI0
aI0
aI0
aI0
aI0
aI1
asg5
I00
sg6
(lp61
F0.24552421947852057
aF-0.2435943964413199
aF0.03493926303887508
aF0.3694966217953367
aF-0.16497769797714104
aF-0.31377467584090435
aF-0.199336241988583
aF-0.20138017823711596
aF0.514256544018582
aF0.19900283119164583
aF0.11612758926864548
aF-0.4498555849514463
aF0.14654984765984896
aF-0.028839262192341942
aF0.23338071529092744
aF-0.02176852282680224
aF-0.4335410310215022
aF-0.3443493561165156
aF0.20859871059705756
aF0.21849777780512009
aF-0.06659556070250085
aF-0.1338312206096815
aF0.0005577877061425027
aF0.5120474684680941
aF0.3014794405520014
aF-0.39748305673873086
aF-0.3054502043407896
aF-0.1062985329643885
aF-0.04410312311474987
aF0.3292912519528094
aF0.040438015310613556
aF-0.14052755101296124
aF0.05909917256137187
aF-0.31700030713632105
aF-0.4899080886209129
aF-0.20110882646009906
aF-0.6094777560307602
aF-0.24923107108208545
aF-0.06702073610241212
aF-0.1804056823732577
aF-0.2838784749319957
aF-0.38777955965826194
aF-0.3669438221764479
aF-0.09640951661058127
aF-0.147893474593714
aF-0.25365813830074424
aF-0.7251757036082559
aF-0.13007179238858585
aF0.2952858731642971
aF0.16021628363088605
aF0.6376618239797597
aF0.46766931733527495
aF-0.1769292903534617
aF0.04852256670643276
aF-0.12478319137383662
aF-0.07542396378159544
aF0.04919306734210285
aF-0.006006097342022822
aF0.277191970880176
aF-0.08003686041961754
aF0.26018725095950845
aF-0.1703699038123498
aF-0.3646262386356644
aF0.19753727240489402
aF0.19529113630414904
aF0.527209755240892
aF0.044294660343822914
aF-0.38561409636817334
aF-0.033011188114531034
aF0.18306896107259185
aF0.5494426016455372
aF0.18753709399883042
aF-0.39512700547154733
asg8
I2
sg9
I-1
sba(ineural
perceptron
p62
(dp63
g3
(lp64
I0
aI0
aI0
aI1
aI0
aI0
aI0
aI0
aI0
aI0
aI1
aI0
aI0
aI0
aI0
aI0
aI0
aI1
aI0
aI0
aI0
aI0
aI0
aI0
aI0
aI1
aI0
aI0
aI0
aI0
aI0
aI0
aI0
aI1
aI1
aI1
aI1
aI0
aI0
aI0
aI0
aI1
aI0
aI0
aI0
aI1
aI0
aI0
aI0
aI1
aI0
aI0
aI0
aI1
aI0
aI0
aI0
aI1
aI1
aI1
aI1
aI0
aI0
aI0
aI0
aI0
aI0
aI0
aI0
aI0
aI0
aI0
aI1
asg5
I00
sg6
(lp65
F0.27842746481667935
aF-0.053842271258994434
aF-0.25488191600416676
aF-0.2121633398519645
aF-0.14736682335114565
aF-0.4722071114588069
aF-0.3669132310587033
aF-0.08388331606213352
aF0.1356102004287178
aF0.03460463404738247
aF-0.20334044233785117
aF-0.6516668352470287
aF-0.04797230065989569
aF-0.304436606528659
aF0.423716959173681
aF0.03807699816443379
aF-0.05689376483512422
aF-0.4144680828668945
aF-0.14961190058350254
aF0.004103915045291444
aF0.3079399729850124
aF0.5875161036685328
aF0.003952368567125726
aF0.585889888855811
aF-0.49644667747683346
aF0.09225734374144276
aF0.2975304090054478
aF0.0669285538356046
aF-0.2812275027164554
aF-0.13369709041533334
aF-0.01686877436609949
aF0.018659621592474283
aF-0.3040239950870358
aF-0.3217938343733676
aF-0.35318605843806583
aF0.0559295044581779
aF-0.5206622906386463
aF0.07029217108499074
aF-0.4483467737297916
aF0.0033318618365969985
aF0.3293250532194526
aF-0.11394750033999386
aF-0.2990124190782938
aF0.17408582003684092
aF0.0006687339280901719
aF-0.041480265306545167
aF-0.6203348700207301
aF0.38801721124085653
aF0.008684177613885354
aF-0.11405621972259579
aF0.46256050316165387
aF0.8226265270288456
aF-0.011172670596827947
aF-0.19119067662003295
aF-0.1410277720470638
aF-0.14734941250848893
aF0.2468865633925095
aF0.46759784236883317
aF0.569356631881287
aF-0.09043441093978086
aF0.11969952153351356
aF-0.013699072834696988
aF-0.07581851425066964
aF-0.09768409637636395
aF0.302372599613115
aF0.6574426457308652
aF-0.08218406781003039
aF-0.6279559907571922
aF-0.15931495595703218
aF0.653316940757493
aF0.05484934859293211
aF0.6341391211538775
aF-0.4494333204318117
asg8
I2
sg9
I-1
sba(ineural
perceptron
p66
(dp67
g3
(lp68
I0
aI0
aI0
aI1
aI0
aI0
aI0
aI0
aI0
aI0
aI1
aI0
aI0
aI0
aI0
aI0
aI0
aI1
aI0
aI0
aI0
aI0
aI0
aI0
aI0
aI1
aI0
aI0
aI0
aI0
aI0
aI0
aI0
aI1
aI1
aI1
aI1
aI0
aI0
aI0
aI0
aI1
aI0
aI0
aI0
aI1
aI0
aI0
aI0
aI1
aI0
aI0
aI0
aI1
aI0
aI0
aI0
aI1
aI1
aI1
aI1
aI0
aI0
aI0
aI0
aI0
aI0
aI0
aI0
aI0
aI0
aI0
aI1
asg5
I00
sg6
(lp69
F-0.2749350969877605
aF0.058846782855926594
aF-0.07861400580733822
aF-0.07168740899480518
aF-0.2513533247437423
aF-0.013076027207026195
aF-0.4234162060775273
aF0.045604335349148456
aF-0.06068079861725763
aF-0.09720751365100387
aF-0.0700458678459983
aF-0.06301602216195136
aF-0.18091709235219344
aF-0.2435709341579472
aF0.0381211267918419
aF0.0739333331547165
aF-0.3415470044946082
aF-0.4073537871193005
aF-0.27741323497665726
aF-0.11365614056813907
aF0.18260943628769866
aF0.21189655807033453
aF-0.07894681450827566
aF-0.025802809242624365
aF-0.37616894608463114
aF-0.4422610827354436
aF-0.28211587819636696
aF-0.349217200067954
aF-0.07474797001646648
aF-0.10963964105076922
aF0.2139755037438396
aF0.4161026324648124
aF-0.25281556997865484
aF-0.3404473218957095
aF0.17669007671793158
aF0.06610538450692373
aF0.08382539639158704
aF0.23118865889595655
aF0.001740134192280092
aF-0.27483772481122604
aF-0.4939993495786986
aF-0.2101016840469067
aF-0.034526232194288756
aF-0.031414432476199475
aF-0.07492961590393603
aF-0.17252884378670907
aF-0.041304732112300485
aF0.08646794152363324
aF-0.4044278668452283
aF-0.13514923440989396
aF-0.2597330994036895
aF-0.10742189988342675
aF-0.398587766125808
aF0.5500595350295305
aF0.453052925835312
aF0.1662627124087305
aF0.24903248952714388
aF0.06460332289851467
aF-0.21032156222669735
aF0.4671625279656735
aF0.15413056566655917
aF-0.04680119848865441
aF0.17813093265484137
aF0.2372112502852374
aF-0.10869984124731512
aF0.4872062087458543
aF0.05377408156803376
aF0.04389875594578699
aF0.42804490892673397
aF-0.005324371802148349
aF-0.2744354561109132
aF-0.10105636104120573
aF-0.42274183195501547
asg8
I3
sg9
I-1
sba(ineural
perceptron
p70
(dp71
g3
(lp72
I0
aI0
aI0
aI1
aI0
aI0
aI0
aI0
aI0
aI0
aI1
aI0
aI0
aI0
aI0
aI0
aI0
aI1
aI0
aI0
aI0
aI0
aI0
aI0
aI0
aI1
aI0
aI0
aI0
aI0
aI0
aI0
aI0
aI1
aI1
aI1
aI1
aI0
aI0
aI0
aI0
aI1
aI0
aI0
aI0
aI1
aI0
aI0
aI0
aI1
aI0
aI0
aI0
aI1
aI0
aI0
aI0
aI1
aI1
aI1
aI1
aI0
aI0
aI0
aI0
aI0
aI0
aI0
aI0
aI0
aI0
aI0
aI1
asg5
I00
sg6
(lp73
F-0.22077350109152874
aF0.005819611734860404
aF0.1323357117532083
aF-0.009897662911195933
aF-0.0871284704668388
aF-0.14638383743365518
aF-0.4514454735750074
aF-0.06439402560837383
aF-0.25898762489576355
aF-0.2529800804748056
aF-0.17696022075216056
aF-0.25788623337097427
aF0.047253535377908246
aF-0.12363620725423714
aF0.017981387941451366
aF0.23570241196836886
aF-0.03527858494944239
aF-0.4749816046438038
aF-0.027593954965873736
aF0.259734602143738
aF-0.083117115193311
aF0.176295543448041
aF0.23303061733475075
aF-0.11684647882055967
aF-0.5148085870202376
aF-0.42531415417219764
aF-0.542791766052285
aF-0.27607349713129736
aF0.032097694994349904
aF-0.22178171510903527
aF0.019614484435127397
aF0.21864821432703613
aF-0.1547852891954883
aF-0.29092740826684305
aF0.1942878390753727
aF0.2341264059977313
aF0.12249208927798778
aF0.2648027289035664
aF-0.12782576244524455
aF-0.24719996282589865
aF-0.6413041816174592
aF0.022085483281902882
aF0.040972313812008845
aF-0.1372261874440655
aF0.17549416111946053
aF0.057126867112378577
aF0.002731227200301105
aF0.3962193775240803
aF0.21135432464125498
aF-0.4614220638470906
aF-0.3277586805085838
aF-0.3752883006544463
aF-0.3445541830524509
aF0.30352878941892913
aF0.25234307264570444
aF-0.17488927331146442
aF0.11250597668097435
aF0.2303981238507449
aF-0.20270528311798028
aF0.23359720610310256
aF-0.047507787585143874
aF0.03024086276667128
aF-0.10808009495155234
aF0.3440272048269436
aF0.24862247849968858
aF0.07341683545222381
aF0.3791903982867949
aF0.10847582101347573
aF0.2003395214114055
aF0.039293893630071755
aF-0.3273146997020341
aF0.16153798061150196
aF-0.5162407420881739
asg8
I3
sg9
I-1
sba(ineural
perceptron
p74
(dp75
g3
(lp76
I0
aI0
aI0
aI1
aI0
aI0
aI0
aI0
aI0
aI0
aI1
aI0
aI0
aI0
aI0
aI0
aI0
aI1
aI0
aI0
aI0
aI0
aI0
aI0
aI0
aI1
aI0
aI0
aI0
aI0
aI0
aI0
aI0
aI1
aI1
aI1
aI1
aI0
aI0
aI0
aI0
aI1
aI0
aI0
aI0
aI1
aI0
aI0
aI0
aI1
aI0
aI0
aI0
aI1
aI0
aI0
aI0
aI1
aI1
aI1
aI1
aI0
aI0
aI0
aI0
aI0
aI0
aI0
aI0
aI0
aI0
aI0
aI1
asg5
I00
sg6
(lp77
F-0.1277406551582919
aF-0.170401613662452
aF0.007148504175606148
aF-0.26437784237951434
aF-0.045551205997812844
aF-0.021201760268730805
aF-0.4141575763358548
aF-0.1794414413811924
aF0.25130265084728465
aF0.06760558736840618
aF0.05239782449733488
aF-0.4006632347333412
aF-0.2837506056247189
aF-0.1038974633841456
aF0.09440464189160955
aF-0.04177822841473103
aF-0.5068453471497012
aF-0.24346252932040316
aF-0.2553476200655732
aF0.38629199083191124
aF0.09901658089871998
aF0.30416888806563636
aF0.45502551518635925
aF0.09390338264903686
aF-0.26013583642734683
aF-0.6060972108999371
aF-0.5957082194182634
aF-0.40296559490454326
aF0.0665848276247585
aF-0.15668454557639924
aF-0.22873009265920158
aF0.39327694558941184
aF-0.37248133502855263
aF0.24023689911211568
aF-0.10841884776876813
aF0.32074333746556993
aF0.1383048402754769
aF0.020155152478774464
aF-0.03281214011696744
aF-0.1738531315216
aF-0.3799235567995859
aF-0.3209761182612145
aF-0.1054276101747753
aF0.022049973708964363
aF0.01758062665129272
aF-0.1225885668427767
aF0.02479321757657663
aF0.00905363258430231
aF0.14039792863499928
aF-0.20433085748004073
aF-0.3620513403380652
aF-0.3734446335443796
aF-0.3610789951535669
aF0.09814093560096857
aF0.06375523305688004
aF-0.03131275987288289
aF0.28958206256341323
aF-0.05886781075291114
aF-0.18773154476286336
aF0.15627022986345643
aF0.25850524941637343
aF0.29430952702535607
aF0.12605198914421087
aF0.12891360578041985
aF-0.2343710234373753
aF0.06485169833098459
aF0.1959490306137673
aF0.24774095650220276
aF0.13510966300474742
aF-0.03832535677156319
aF-0.2624936360452939
aF0.4641646786616741
aF-0.36507384666630494
asg8
I3
sg9
I-1
sba(ineural
perceptron
p78
(dp79
g3
(lp80
I0
aI0
aI0
aI1
aI0
aI0
aI0
aI0
aI0
aI0
aI1
aI0
aI0
aI0
aI0
aI0
aI0
aI1
aI0
aI0
aI0
aI0
aI0
aI0
aI0
aI1
aI0
aI0
aI0
aI0
aI0
aI0
aI0
aI1
aI1
aI1
aI1
aI0
aI0
aI0
aI0
aI1
aI0
aI0
aI0
aI1
aI0
aI0
aI0
aI1
aI0
aI0
aI0
aI1
aI0
aI0
aI0
aI1
aI1
aI1
aI1
aI0
aI0
aI0
aI0
aI0
aI0
aI0
aI0
aI0
aI0
aI0
aI1
asg5
I00
sg6
(lp81
F-0.10395205388142291
aF-0.2781509934306285
aF-0.1368680280762677
aF-0.22986697776914605
aF0.06186440993663968
aF-0.15866985306456463
aF-0.5310684432889221
aF0.046143876932100786
aF0.06413515507381129
aF-0.2681648928754671
aF-0.1782728806213325
aF-0.2912929776204548
aF-0.2199630909542587
aF-0.23054166189386296
aF0.3237763704355664
aF0.2975535431549986
aF-0.47435846058054315
aF-0.0371682428019582
aF-0.05477241391441745
aF-0.16928523211579996
aF-0.0474212785714552
aF0.23977347884749314
aF0.0024975219314751843
aF-0.036098349448439454
aF-0.0054302875308193735
aF-0.6285724566061396
aF-0.7025686973838551
aF-0.1861316975117996
aF-0.11100868826798678
aF-0.0738048680423564
aF0.3380195419467541
aF-0.22521620597830344
aF-0.4764342644501526
aF-0.3605227038757912
aF0.19214910306239683
aF0.5402840498966388
aF0.01943610993336867
aF-0.13857605877623064
aF-0.054998505935073605
aF0.04230788566278644
aF-0.4796555567305707
aF-0.21406273843474666
aF-0.1942260620748372
aF-0.0430270543698085
aF0.07871190546616279
aF0.11845591605296175
aF-0.14769178707026148
aF0.5420570402178347
aF-0.15888407506994087
aF-0.5264783233039483
aF-0.13481157268284533
aF-0.529985420298812
aF-0.1123927426398968
aF0.24177883656366064
aF0.19489541260664386
aF0.1599257695411799
aF0.21896070356665148
aF0.04757320578091431
aF-0.07585554233462699
aF0.41812941324699116
aF-0.032343370842407085
aF0.32424217255690135
aF-0.04561442297575782
aF-0.03163150779252824
aF-0.22329856068834025
aF0.1639930862898029
aF0.3636845024649077
aF0.2756682516560528
aF0.21780340336155873
aF0.07656396702435518
aF-0.12957954556847281
aF0.08214204650412592
aF-0.4988485264216833
asg8
I3
sg9
I-1
sba(ineural
perceptron
p82
(dp83
g3
(lp84
I0
aI0
aI0
aI1
aI0
aI0
aI0
aI0
aI0
aI0
aI1
aI0
aI0
aI0
aI0
aI0
aI0
aI1
aI0
aI0
aI0
aI0
aI0
aI0
aI0
aI1
aI0
aI0
aI0
aI0
aI0
aI0
aI0
aI1
aI1
aI1
aI1
aI0
aI0
aI0
aI0
aI1
aI0
aI0
aI0
aI1
aI0
aI0
aI0
aI1
aI0
aI0
aI0
aI1
aI0
aI0
aI0
aI1
aI1
aI1
aI1
aI0
aI0
aI0
aI0
aI0
aI0
aI0
aI0
aI0
aI0
aI0
aI1
asg5
I00
sg6
(lp85
F0.05472844712724745
aF-0.14450066762791497
aF0.0022711341458306264
aF-0.3026201559937234
aF-0.1597653991412651
aF0.13122025757398964
aF-0.5801613079968869
aF-0.17056270569415755
aF0.1820225562285246
aF-0.12028195075078381
aF-0.1993892728044606
aF-0.09832124657402684
aF-0.13701453460699126
aF-0.0727523923679063
aF-0.09985040844335644
aF-0.22770599021370558
aF-0.7675328263017863
aF-0.37483712956228743
aF0.27808807438709293
aF0.03797661045577562
aF-0.13137135898794577
aF0.015088263207839282
aF0.255693280923425
aF0.4285130653724305
aF-0.17321881241325188
aF-0.5657190270028565
aF-0.811994012972483
aF-0.09373404573693542
aF-0.07000585012488868
aF0.0691629963841436
aF0.25728352625205475
aF0.4226051052001871
aF0.08642815564310813
aF-0.09138972005170995
aF-0.0715992214721589
aF0.3969916486195474
aF0.24831021429672442
aF0.1506208270394245
aF-0.20489389914993725
aF-0.3749910241275971
aF-0.7562755439657287
aF-0.12180364240100873
aF-0.1996229038378102
aF-0.1277994701406099
aF0.19089274296679312
aF-0.12490737496576511
aF0.10282408103464477
aF0.39359130268333975
aF-0.3281060675966336
aF-0.09401179544491764
aF-0.17629994950779748
aF-0.4855956937015645
aF-0.21689321499384567
aF0.4638885444556593
aF0.11110523841737303
aF0.0354535287558493
aF0.4668538664815577
aF0.005289537040651389
aF-0.10567875873727782
aF0.19861375698547012
aF-0.04194829884551235
aF-0.030886138329562236
aF0.16445654473499985
aF0.2461060956064152
aF-0.009705792082106372
aF0.21897219282535063
aF0.35685557513357635
aF0.15599995037449346
aF0.29447692972055495
aF-0.07642426701462644
aF-0.3107011711760168
aF0.09319673586890417
aF-0.580621745279646
asg8
I3
sg9
I-1
sba(ineural
perceptron
p86
(dp87
g3
(lp88
I0
aI0
aI0
aI1
aI0
aI0
aI0
aI0
aI0
aI0
aI1
aI0
aI0
aI0
aI0
aI0
aI0
aI1
aI0
aI0
aI0
aI0
aI0
aI0
aI0
aI1
aI0
aI0
aI0
aI0
aI0
aI0
aI0
aI1
aI1
aI1
aI1
aI0
aI0
aI0
aI0
aI1
aI0
aI0
aI0
aI1
aI0
aI0
aI0
aI1
aI0
aI0
aI0
aI1
aI0
aI0
aI0
aI1
aI1
aI1
aI1
aI0
aI0
aI0
aI0
aI0
aI0
aI0
aI0
aI0
aI0
aI0
aI1
asg5
I00
sg6
(lp89
F0.23846525825791787
aF-0.29186170878420326
aF-0.09988176100893684
aF-0.597305142904032
aF-0.19049344215346894
aF-0.3269573615677587
aF0.0948700060910864
aF0.06948985903190459
aF-0.22932291760375065
aF-0.4476820785406721
aF-0.04880125328287102
aF-0.19066599803986614
aF-0.10898238684919447
aF0.09917392436415759
aF-0.40491028594240497
aF-0.27263481864418454
aF-0.2268471381163938
aF0.3315940852608982
aF0.07365742046575961
aF0.35848492474762494
aF0.04008928821334025
aF-0.04373653464745687
aF0.4337266652175411
aF-0.392711535280634
aF0.5640536472759962
aF0.15940412193370504
aF-0.13269467119321982
aF0.034652108976082605
aF0.3712146762526347
aF-0.036985391356310585
aF-0.17791543637647614
aF0.5442183563169759
aF0.5965581974641362
aF0.350660498835459
aF0.10893430743327225
aF0.3073588523503338
aF0.10934201191906866
aF0.25554194658002805
aF-0.33757012937388103
aF0.1461749553180633
aF0.09887183797937851
aF0.24385225686849546
aF0.0331849108305481
aF0.24419632246710923
aF0.2101810543632155
aF0.08240126939572644
aF-0.14242228088212133
aF0.49915258779751626
aF0.3826980801397284
aF-0.3940941910738116
aF0.10446538491728904
aF-0.11865161053252479
aF0.26540590513780493
aF0.20001760116948894
aF-0.026059644081335254
aF-0.07175123184849196
aF-0.43320872893449475
aF0.03172454029880824
aF-0.42616682081234347
aF0.2890745856516713
aF-0.03625173141964107
aF-0.2863321543591911
aF0.03076175011219486
aF-0.29624714029425203
aF0.6047602855544282
aF0.08741222505746649
aF-0.9915845341461085
aF-0.667448145852146
aF-0.31751267993045285
aF-0.1284259323324681
aF0.2699178504909022
aF0.23198507846235852
aF-0.3653321190641923
asg8
I4
sg9
I1
sba(ineural
perceptron
p90
(dp91
g3
(lp92
I0
aI0
aI0
aI1
aI0
aI0
aI0
aI0
aI0
aI0
aI1
aI0
aI0
aI0
aI0
aI0
aI0
aI1
aI0
aI0
aI0
aI0
aI0
aI0
aI0
aI1
aI0
aI0
aI0
aI0
aI0
aI0
aI0
aI1
aI1
aI1
aI1
aI0
aI0
aI0
aI0
aI1
aI0
aI0
aI0
aI1
aI0
aI0
aI0
aI1
aI0
aI0
aI0
aI1
aI0
aI0
aI0
aI1
aI1
aI1
aI1
aI0
aI0
aI0
aI0
aI0
aI0
aI0
aI0
aI0
aI0
aI0
aI1
asg5
I00
sg6
(lp93
F0.16297919514161144
aF-0.1385269035429117
aF-0.1330534876918013
aF-0.836723570549386
aF-0.10389842209272225
aF-0.5267933687928903
aF0.28219706371535214
aF-0.11964096187372093
aF0.364720211136756
aF-0.3016457989904233
aF-0.18168762409643435
aF-0.3000216688973657
aF-0.05029374601732739
aF-0.21994946641724644
aF0.1672679255325529
aF0.042824471805582146
aF0.061381677845917304
aF0.2552506687930362
aF-0.08873876877201264
aF0.5204385506724674
aF0.530878587552052
aF0.380654736604205
aF-0.34945201121192576
aF0.048549242753074956
aF0.14897924316160166
aF-0.025207601671595237
aF-0.0028760135870981654
aF0.5161813637497968
aF0.3287248056537383
aF-0.0884763741944199
aF-0.05281017377338826
aF-0.0819779580339917
aF0.5635829389633137
aF0.46809331827365785
aF0.7151470256517202
aF0.24722008270066778
aF-0.11107478468562922
aF-0.17794665510276875
aF-0.11060148998078574
aF0.3373236358137591
aF0.2649621997268692
aF0.04235254557969409
aF0.3556862223640358
aF0.18531799368708513
aF-0.029596526019169556
aF-0.088485231299964
aF-0.008025061737969914
aF0.2189459487758288
aF0.13535980924036722
aF-0.03129234661900028
aF-0.019469128550951554
aF-0.013507831942085855
aF0.5996959228342521
aF0.46862597877365686
aF-0.35455235044500294
aF-0.5605668710269375
aF0.009859819346216332
aF-0.09806386675436739
aF-0.9222559266602307
aF0.07707889718380222
aF-0.07458499245375215
aF0.1480693454348116
aF0.27140737953669536
aF0.21422609924340025
aF0.10278033006030149
aF-0.46377778577668183
aF-0.2552872402256322
aF-0.8095626111153716
aF-0.6976109302721777
aF-0.1042153029999329
aF0.42826719396574287
aF0.46555543277443023
aF-0.48941245534730826
asg8
I4
sg9
I-1
sba(ineural
perceptron
p94
(dp95
g3
(lp96
I0
aI0
aI0
aI1
aI0
aI0
aI0
aI0
aI0
aI0
aI1
aI0
aI0
aI0
aI0
aI0
aI0
aI1
aI0
aI0
aI0
aI0
aI0
aI0
aI0
aI1
aI0
aI0
aI0
aI0
aI0
aI0
aI0
aI1
aI1
aI1
aI1
aI0
aI0
aI0
aI0
aI1
aI0
aI0
aI0
aI1
aI0
aI0
aI0
aI1
aI0
aI0
aI0
aI1
aI0
aI0
aI0
aI1
aI1
aI1
aI1
aI0
aI0
aI0
aI0
aI0
aI0
aI0
aI0
aI0
aI0
aI0
aI1
asg5
I00
sg6
(lp97
F0.5353978405995953
aF0.08884100014470053
aF-0.32351285599039925
aF-0.5177786074247747
aF-0.45734982615362696
aF-0.31192198204918975
aF-0.33786251677267665
aF0.0627725496576366
aF-0.30424548423518116
aF-0.08707906595204407
aF-0.02143480917540379
aF-0.29481512755983685
aF-0.19442959993906764
aF-0.06684532121854349
aF0.10785925722297239
aF0.018392416944487264
aF-0.2774197197661672
aF0.11444004632009337
aF0.17307815390488546
aF0.33629475931066244
aF0.20684845757962492
aF-0.2265198513135805
aF-0.24681112072714265
aF0.16081106876745435
aF0.4410613421159766
aF0.027910822793941904
aF-0.4299198479253392
aF0.43607939182028543
aF0.4901912517254071
aF0.35577128872258523
aF0.29261825389794827
aF0.2821857236962215
aF0.4728674669411609
aF0.15381022412743106
aF0.6386786029614112
aF0.29521334251947307
aF0.3293618647541916
aF-0.19511119289953013
aF-0.056564408071008015
aF0.5169691133984589
aF0.28327852946108323
aF0.26232978917737115
aF0.0732065067313059
aF-0.1342788346793547
aF0.377019568879137
aF0.07287123350564083
aF0.4668974353705757
aF-0.4154801431856206
aF0.16171407075975833
aF-0.26373071626984324
aF-0.17807727250199157
aF0.23575261465919775
aF0.60880251110005
aF0.19527423137047578
aF-0.35990494775779436
aF0.2582573606027331
aF-0.12002026020668641
aF-0.3996537281319339
aF-0.2938883100362365
aF-0.14629674588665725
aF-0.3539938671159572
aF0.31546845902404275
aF-0.08409510752560789
aF0.39883360434172044
aF0.6550455788406512
aF-0.2753410793344213
aF-0.1628564596026996
aF-0.6803538788815701
aF-0.5043649352413946
aF-0.24969075501122076
aF-0.11101088142883105
aF-0.04565534467963367
aF-0.591445878900738
asg8
I4
sg9
I-1
sba(ineural
perceptron
p98
(dp99
g3
(lp100
I0
aI0
aI0
aI1
aI0
aI0
aI0
aI0
aI0
aI0
aI1
aI0
aI0
aI0
aI0
aI0
aI0
aI1
aI0
aI0
aI0
aI0
aI0
aI0
aI0
aI1
aI0
aI0
aI0
aI0
aI0
aI0
aI0
aI1
aI1
aI1
aI1
aI0
aI0
aI0
aI0
aI1
aI0
aI0
aI0
aI1
aI0
aI0
aI0
aI1
aI0
aI0
aI0
aI1
aI0
aI0
aI0
aI1
aI1
aI1
aI1
aI0
aI0
aI0
aI0
aI0
aI0
aI0
aI0
aI0
aI0
aI0
aI1
asg5
I00
sg6
(lp101
F0.2057789337832545
aF-0.3421449143852592
aF-0.4102922697829584
aF-0.6916195163994001
aF-0.02240625261191501
aF-0.2899404657217908
aF0.21361231351034998
aF-0.03138284348068861
aF0.2270671502098533
aF0.18973505716959682
aF-0.06830831815378259
aF-0.35300403585721485
aF-0.0752471230140126
aF-0.014552333436771845
aF0.18974517182189687
aF0.1605252863179946
aF-0.11986402156042837
aF0.027202012700916645
aF0.08343001447802212
aF0.4956852460529979
aF0.45815315784682287
aF0.4895849375051968
aF0.0045090233277238975
aF-0.16394514012423936
aF0.4441257944973269
aF0.020242155036869037
aF0.14320472788024546
aF0.2600712182571
aF0.24786744434735372
aF0.4066545468095918
aF-0.1358745357474198
aF-0.038350598028796826
aF0.8409522134386429
aF-0.08470066520595103
aF0.6337634694296841
aF0.8689987385826922
aF-0.36184031894819557
aF-0.3626394104596953
aF0.049256167935924716
aF0.5533105595597313
aF0.03049433831031702
aF0.5566126374859832
aF-0.3005025152921174
aF0.03619238545711802
aF0.09660582580367336
aF-0.1795019135335839
aF0.26158200193803727
aF0.3304973857274244
aF-0.15482428517466104
aF-0.4381257088360783
aF0.2852092510206621
aF0.2627951816490971
aF0.7779803660250849
aF0.11135609195058048
aF-0.022935346159331172
aF-0.29276880002489425
aF-0.12280097710824431
aF-0.6869833756837823
aF-0.441864763645199
aF-0.08078940773302379
aF-0.19407180731278195
aF-0.29103388833656557
aF-0.1278518511961195
aF0.06677191351558666
aF0.25002920183879107
aF0.020698719990243784
aF-0.6981997732531469
aF-0.808367267028847
aF-0.44260334499489595
aF0.12304017382048667
aF-0.1027570809618906
aF0.09502689351532354
aF-0.594833894613495
asg8
I4
sg9
I-1
sba(ineural
perceptron
p102
(dp103
g3
(lp104
I0
aI0
aI0
aI1
aI0
aI0
aI0
aI0
aI0
aI0
aI1
aI0
aI0
aI0
aI0
aI0
aI0
aI1
aI0
aI0
aI0
aI0
aI0
aI0
aI0
aI1
aI0
aI0
aI0
aI0
aI0
aI0
aI0
aI1
aI1
aI1
aI1
aI0
aI0
aI0
aI0
aI1
aI0
aI0
aI0
aI1
aI0
aI0
aI0
aI1
aI0
aI0
aI0
aI1
aI0
aI0
aI0
aI1
aI1
aI1
aI1
aI0
aI0
aI0
aI0
aI0
aI0
aI0
aI0
aI0
aI0
aI0
aI1
asg5
I00
sg6
(lp105
F0.5802424554461155
aF-0.2304068901694352
aF-0.46671052594309104
aF-0.4432344588529006
aF-0.5252668064364969
aF0.1633471052265503
aF-0.2989821773947365
aF0.25606244113312115
aF-0.3276864966748926
aF-0.5420411160902894
aF-0.09034358273063811
aF-0.5622438646776422
aF-0.2837092984266322
aF-0.06321069690235404
aF-0.12568915398743571
aF-0.3576245571744444
aF0.2487485573147135
aF0.2952286928636212
aF0.08342651524279424
aF0.5436765237494685
aF0.4078091117289603
aF-0.12400720343230094
aF-0.03644683793537043
aF0.0030547630753948105
aF0.09277769374221942
aF0.19500152569409343
aF0.3228252784362333
aF0.09442023991567211
aF0.37831287579328465
aF0.11680348961751626
aF0.29925612314553907
aF0.43839841757451814
aF0.6243951375635535
aF0.4764776997318868
aF0.380431229648553
aF0.5416689520775556
aF-0.3325779064036658
aF0.3354795024749404
aF0.12103835698609518
aF0.26904710895197936
aF0.40869417798466123
aF0.1795888473532241
aF0.11726209090177613
aF0.2913129851535178
aF0.19845274721897174
aF-0.08097115437158241
aF-0.28547628548284987
aF0.14706737801827602
aF-0.05745897851710381
aF-0.18870931083159392
aF0.03895106854959586
aF0.07354814391680052
aF0.5077304415161404
aF-0.11363323602879001
aF0.01955266384052082
aF6.743493234378367e-05
aF0.09785734251748543
aF-0.031687369672715585
aF-0.7306172584477841
aF0.07342393598916573
aF0.025045406152228545
aF0.09515564502321724
aF-0.27754270696516803
aF-0.3100730940969179
aF0.2899802727627855
aF0.038394828869733236
aF-0.34937463545068215
aF-0.968702289794754
aF-0.4343935388702753
aF-0.20470502706938296
aF0.15417175754776605
aF0.22200464424546879
aF-0.3492496699909894
asg8
I4
sg9
I-1
sba(ineural
perceptron
p106
(dp107
g3
(lp108
I0
aI0
aI0
aI1
aI0
aI0
aI0
aI0
aI0
aI0
aI1
aI0
aI0
aI0
aI0
aI0
aI0
aI1
aI0
aI0
aI0
aI0
aI0
aI0
aI0
aI1
aI0
aI0
aI0
aI0
aI0
aI0
aI0
aI1
aI1
aI1
aI1
aI0
aI0
aI0
aI0
aI1
aI0
aI0
aI0
aI1
aI0
aI0
aI0
aI1
aI0
aI0
aI0
aI1
aI0
aI0
aI0
aI1
aI1
aI1
aI1
aI0
aI0
aI0
aI0
aI0
aI0
aI0
aI0
aI0
aI0
aI0
aI1
asg5
I00
sg6
(lp109
F0.10692032649037196
aF0.31393816697213295
aF0.2807338350295908
aF-0.061369017102900214
aF-0.2540852675382924
aF0.36400842099407615
aF0.1162921040682789
aF0.3834174052931142
aF-0.11557171216595218
aF-0.1833648724311232
aF-0.03198004910209408
aF0.45049167445274796
aF-0.005074510215619839
aF-0.342590639643952
aF-0.1837749461237801
aF-0.011148472215008951
aF-0.10431078707991778
aF0.6819683690701426
aF-0.15535472001694886
aF0.5227140050843184
aF0.04696731932912926
aF-0.3524537328082219
aF-0.6559767716112207
aF-0.38815915131405865
aF-0.3557552616621226
aF0.18961581041160236
aF0.10055564581707019
aF-0.058006423008904684
aF0.17384893424022818
aF-0.6705877538057159
aF-0.09799650950378679
aF0.04925669921742784
aF0.08042645565544036
aF-0.21754675290161274
aF0.1625959145849695
aF-0.1864299538598631
aF-0.47385478394497693
aF0.31509669991795075
aF-0.611933574884759
aF-0.08235729598586095
aF-0.10962169843255097
aF-0.3120413503516308
aF-0.0450766753091876
aF-0.14108021105254226
aF0.15891413040086336
aF0.11088254408323091
aF0.44943108943569654
aF0.10002395885129975
aF0.10192651881886025
aF-0.08497851282733493
aF-0.22637753596351767
aF-0.25256444965108
aF0.1705975373722063
aF-0.0749935419013412
aF0.4023761158851933
aF0.22640969235185543
aF-0.14813485146506616
aF0.04926416242511658
aF0.3163904219660164
aF-0.31916601267884104
aF-0.0160632100647246
aF0.5754149041836658
aF-0.23405661802240665
aF-0.26270526985615716
aF0.721245899040809
aF0.0863620894388829
aF0.33827028091443545
aF-0.2446911105972183
aF-0.2424357293828764
aF-0.023452053443417973
aF-0.0749247677311795
aF0.04535463408140719
aF-1.0438952758026572
asg8
I5
sg9
I-1
sba(ineural
perceptron
p110
(dp111
g3
(lp112
I0
aI0
aI0
aI1
aI0
aI0
aI0
aI0
aI0
aI0
aI1
aI0
aI0
aI0
aI0
aI0
aI0
aI1
aI0
aI0
aI0
aI0
aI0
aI0
aI0
aI1
aI0
aI0
aI0
aI0
aI0
aI0
aI0
aI1
aI1
aI1
aI1
aI0
aI0
aI0
aI0
aI1
aI0
aI0
aI0
aI1
aI0
aI0
aI0
aI1
aI0
aI0
aI0
aI1
aI0
aI0
aI0
aI1
aI1
aI1
aI1
aI0
aI0
aI0
aI0
aI0
aI0
aI0
aI0
aI0
aI0
aI0
aI1
asg5
I00
sg6
(lp113
F0.39715503104123184
aF0.19562671403115303
aF0.051273319228256065
aF-0.4816999155280226
aF-0.07532258861299466
aF0.04775434150787808
aF0.5217906449657973
aF0.6897191528223546
aF-0.4415448244441982
aF0.02357742379308474
aF-0.2759640934654215
aF0.023822592901752513
aF0.43003823524045914
aF-0.30412737305733517
aF-0.41368012873208926
aF-0.2653689547763519
aF0.09520427364020598
aF-0.04408943881613882
aF-0.3681004490440603
aF0.4911247137678537
aF-0.34889503718117587
aF-0.4433430647432447
aF-0.47533963220316333
aF0.30488832118816955
aF-0.11570584958586069
aF0.5923089559658804
aF0.06347368800860242
aF-0.003167380102426391
aF0.03298918762315185
aF-0.3490177492330061
aF-0.3510822520576552
aF-0.20161606619325675
aF0.3010894912173744
aF-0.15172696809193567
aF0.24564036175612716
aF-0.09618326890998571
aF-0.1793810179847415
aF-0.28010853930149415
aF-0.11338365149687464
aF0.16785210324406966
aF-0.469954726930836
aF-0.06379845430027721
aF0.210761863718333
aF0.008551527562611856
aF-0.1233842215493218
aF0.11920532303566407
aF0.013961242447140063
aF-0.39241313436672864
aF-0.3609751341616891
aF-0.4498231447252925
aF0.21756615803227436
aF-0.10370918393947194
aF0.08052055842134385
aF-0.37592755350127544
aF0.6212331993663051
aF-0.20908100729083054
aF-0.24605216243445516
aF0.04586801253465747
aF0.3281664532151771
aF-0.22820696259664336
aF0.18262822537662482
aF0.710258285643036
aF0.013517244565121742
aF0.16447894693245282
aF-0.026799085432994186
aF0.3545741295543057
aF0.22348110625312384
aF0.04206197401944159
aF-0.02141266086809882
aF0.2623727766897179
aF-0.05071163940346268
aF0.07380066057202904
aF-1.215893425473448
asg8
I5
sg9
I-1
sba(ineural
perceptron
p114
(dp115
g3
(lp116
I0
aI0
aI0
aI1
aI0
aI0
aI0
aI0
aI0
aI0
aI1
aI0
aI0
aI0
aI0
aI0
aI0
aI1
aI0
aI0
aI0
aI0
aI0
aI0
aI0
aI1
aI0
aI0
aI0
aI0
aI0
aI0
aI0
aI1
aI1
aI1
aI1
aI0
aI0
aI0
aI0
aI1
aI0
aI0
aI0
aI1
aI0
aI0
aI0
aI1
aI0
aI0
aI0
aI1
aI0
aI0
aI0
aI1
aI1
aI1
aI1
aI0
aI0
aI0
aI0
aI0
aI0
aI0
aI0
aI0
aI0
aI0
aI1
asg5
I00
sg6
(lp117
F-0.3115175662915943
aF0.3591605672978553
aF0.08033831949759705
aF-0.42740709454265013
aF-0.37977260162817195
aF0.5440817909160579
aF-0.08991882530580012
aF0.34781894264456137
aF-0.17182556858514608
aF-0.1749339343501356
aF-0.20240045883690524
aF0.13259519132876424
aF-0.11655737071385781
aF-0.07469494636933903
aF-0.3595115116795773
aF0.062005792034631746
aF-0.17257817587857682
aF0.4483761596943163
aF-0.17110575624539426
aF0.32284292702802164
aF-0.20472867662019142
aF-0.20775408356472555
aF-0.3231735985636375
aF-0.056402754689941395
aF0.15147470397558208
aF-0.07901859331582615
aF-0.1371630068400735
aF0.35867426509592437
aF-0.14336400071948513
aF-0.7208440740419826
aF-0.056950825128175744
aF-0.316885417495377
aF0.2155836508481505
aF-0.1820950807724706
aF0.18730217559057294
aF0.14316376817994297
aF-0.24594752409737178
aF0.12843948895522625
aF-0.24319620061268457
aF0.2340195449876458
aF-0.04944859867039267
aF-0.2908365554558182
aF0.33950038690042206
aF0.18092793653479022
aF-0.10535722245112121
aF-0.26497530157493526
aF-0.041205237709333944
aF-0.04973617028050084
aF-0.16165680577829425
aF-0.17070270427768608
aF-0.08917125277805815
aF-0.3476482720252293
aF0.03088080531903505
aF0.11205910877937882
aF0.5918626158423198
aF-0.0675395608479762
aF-0.007636511680742121
aF-0.4224523408203857
aF0.2616781443906371
aF-0.252066471584789
aF0.3101270269345494
aF0.6134020443658621
aF0.16881156860661276
aF-0.2686714863550488
aF0.327701069128983
aF0.38194589899933096
aF0.05054893715070552
aF0.23597963036357786
aF0.10210220818221291
aF-0.12245848664287336
aF-0.4059017792996221
aF0.38271925227751835
aF-0.8900160569037006
asg8
I5
sg9
I-1
sba(ineural
perceptron
p118
(dp119
g3
(lp120
I0
aI0
aI0
aI1
aI0
aI0
aI0
aI0
aI0
aI0
aI1
aI0
aI0
aI0
aI0
aI0
aI0
aI1
aI0
aI0
aI0
aI0
aI0
aI0
aI0
aI1
aI0
aI0
aI0
aI0
aI0
aI0
aI0
aI1
aI1
aI1
aI1
aI0
aI0
aI0
aI0
aI1
aI0
aI0
aI0
aI1
aI0
aI0
aI0
aI1
aI0
aI0
aI0
aI1
aI0
aI0
aI0
aI1
aI1
aI1
aI1
aI0
aI0
aI0
aI0
aI0
aI0
aI0
aI0
aI0
aI0
aI0
aI1
asg5
I00
sg6
(lp121
F0.4556622205797709
aF-0.01171159344622311
aF0.17435297338695188
aF-0.27719131652358453
aF-0.42476720811296875
aF0.5334160621030103
aF0.3436021597723814
aF0.6642787431168836
aF-0.46733332184179877
aF-0.4452556007454336
aF-0.2627179538010461
aF0.3434786789852853
aF-0.0007413488347522909
aF-0.21395323818428785
aF-0.21385605291328452
aF-0.10711210970203543
aF0.08426246334930586
aF0.2700004618023568
aF-0.3357745496199901
aF0.08734329176918787
aF0.12788745310718927
aF-0.45670930252859554
aF-0.6424693883017771
aF0.2888295790335823
aF0.02463510293270624
aF0.2797368277805993
aF-0.14915705251633832
aF0.30969535155264094
aF0.034106886466331435
aF-0.2740438608197475
aF-0.3544071904893584
aF-0.7318247327358482
aF-0.29324408936771473
aF0.22903043130437634
aF0.3587661458055492
aF-0.17469712711020124
aF0.0486407739902677
aF-0.25452294729494673
aF-0.27168243065639497
aF0.13147194891020525
aF0.3574330660049396
aF-0.3432289962394807
aF0.2887312866958712
aF-0.2532539159995741
aF-0.007744313157098177
aF0.03693074789667129
aF-0.03553211682824499
aF0.3345158411663177
aF0.05753554217441359
aF-0.15387959330666015
aF0.01961529737743931
aF0.4392349450182752
aF0.280977141257442
aF-0.014746245286035884
aF0.5156477476678076
aF-0.22228555605786754
aF-0.20818838319704983
aF0.0890078066099228
aF-0.08244424593104464
aF-0.06553355235181436
aF-0.09081112869370098
aF0.7837731487742425
aF0.29598685295246274
aF-0.3997733135802049
aF0.14950910917277374
aF0.055994889530657094
aF0.43396626247887793
aF0.07567351227394836
aF-0.0015844540890264588
aF-0.22011977767711205
aF-0.10637065136860023
aF-0.017008723091001255
aF-1.2344347503297508
asg8
I5
sg9
I-1
sba(ineural
perceptron
p122
(dp123
g3
(lp124
I0
aI0
aI0
aI1
aI0
aI0
aI0
aI0
aI0
aI0
aI1
aI0
aI0
aI0
aI0
aI0
aI0
aI1
aI0
aI0
aI0
aI0
aI0
aI0
aI0
aI1
aI0
aI0
aI0
aI0
aI0
aI0
aI0
aI1
aI1
aI1
aI1
aI0
aI0
aI0
aI0
aI1
aI0
aI0
aI0
aI1
aI0
aI0
aI0
aI1
aI0
aI0
aI0
aI1
aI0
aI0
aI0
aI1
aI1
aI1
aI1
aI0
aI0
aI0
aI0
aI0
aI0
aI0
aI0
aI0
aI0
aI0
aI1
asg5
I00
sg6
(lp125
F0.2320795662229044
aF0.20045144634267928
aF-0.231265669267845
aF0.06454237448426203
aF0.06945630439153917
aF0.43754712979464394
aF0.17436670206029747
aF0.40802092546302604
aF0.34514597535007163
aF0.003507238902718264
aF0.07842293992447356
aF0.1240508364238619
aF-0.03057007573665384
aF-0.11438251608088797
aF-0.22854212109519573
aF-0.19660140556410463
aF-0.45752951143870335
aF0.34311900770758264
aF-0.23722058786983477
aF0.44974812852408785
aF0.03857606822950156
aF-0.37275643768622824
aF-0.4970026113927102
aF-0.07594060256021462
aF-0.534968082587433
aF0.37855626837546985
aF0.06440138180457777
aF0.154697879128776
aF-0.2153473225662474
aF-0.48081890433661956
aF-0.6943202046992822
aF-0.2820355685071909
aF0.08158581366499616
aF-0.023919340011014523
aF0.6307227662290771
aF-0.28076826524495
aF-0.3577713184306396
aF-0.14160698508819197
aF-0.1656132756353376
aF0.025091233152110527
aF0.16469312243375436
aF0.05348437218784574
aF0.0795409839734633
aF-0.41643700413319623
aF-0.13883950346163115
aF-0.09179558162613297
aF0.2650549346557307
aF0.23628184777133834
aF0.0011788862064256375
aF-0.4351829852050211
aF-0.010263482106256747
aF0.1700163195707337
aF-0.08191357838582464
aF0.07094470218447978
aF0.6769370389528332
aF0.051473901766510566
aF-0.12094459134686526
aF-0.6112915616664133
aF-0.17296051217382286
aF0.18623053277179646
aF-0.04423048901919627
aF0.646198133762002
aF-0.13245624204436973
aF0.18246637185149694
aF0.2936958211497287
aF0.29989185709865207
aF-0.04163260412951365
aF0.2601771858376142
aF0.15822825694477208
aF-0.4711708385038703
aF-0.1744964260162033
aF-0.18251266687135315
aF-1.244831594146028
asg8
I5
sg9
I-1
sba(ineural
perceptron
p126
(dp127
g3
(lp128
I0
aI0
aI0
aI1
aI0
aI0
aI0
aI0
aI0
aI0
aI1
aI0
aI0
aI0
aI0
aI0
aI0
aI1
aI0
aI0
aI0
aI0
aI0
aI0
aI0
aI1
aI0
aI0
aI0
aI0
aI0
aI0
aI0
aI1
aI1
aI1
aI1
aI0
aI0
aI0
aI0
aI1
aI0
aI0
aI0
aI1
aI0
aI0
aI0
aI1
aI0
aI0
aI0
aI1
aI0
aI0
aI0
aI1
aI1
aI1
aI1
aI0
aI0
aI0
aI0
aI0
aI0
aI0
aI0
aI0
aI0
aI0
aI1
asg5
I00
sg6
(lp129
F-0.30701969856378025
aF-0.3241738791997095
aF0.06293213320640278
aF-0.3011532146266478
aF-0.019182559870706193
aF-0.5686411203543585
aF-0.130515969644123
aF-0.2220929924122114
aF-0.34208093305672105
aF-0.014963419724010638
aF-0.002280128061186555
aF-0.11661114116762135
aF-0.48912201123516563
aF-0.2381763294001065
aF-0.4804178169327502
aF-0.05235693830178645
aF0.11874051872437248
aF0.08700366428968542
aF0.16498400782655667
aF0.06718771657071378
aF-0.020454348747852725
aF-0.8202868666955518
aF-0.3877589210672152
aF-0.02214939108295604
aF0.36011446232851596
aF0.37671985315347944
aF-0.12882742925412563
aF0.20047581103825238
aF-0.2277371826255426
aF-0.17684227540753006
aF-0.2606303718000086
aF-0.43094109406667114
aF0.06886323216738001
aF0.22195902849414145
aF0.6229769576692932
aF0.43242970510278544
aF0.006401260633311763
aF-0.2772636546841749
aF0.0922403939809606
aF0.10450924934042291
aF0.269733465642889
aF0.5127768258907249
aF0.06111987168834965
aF-0.19599156078968002
aF0.19804181615513747
aF-0.0933782227202847
aF0.331137604700975
aF0.06466889661317177
aF0.3181695121653103
aF0.568650603860567
aF0.27118524799010557
aF0.12642623789647142
aF0.11793918958853906
aF0.07616633770237845
aF0.16839818249947494
aF0.2633949631627589
aF0.23849657761441914
aF0.5092354637676333
aF-0.20941724770822875
aF0.24865326466538698
aF0.29172459073867896
aF-0.14356195985553794
aF0.05928505850333887
aF-0.1680377750262114
aF0.10422430887473808
aF-0.16471381867450088
aF-0.259565987406553
aF-0.3939991448450112
aF-0.13674997946094142
aF0.13877022084287555
aF-0.17785053058976172
aF0.5319166720889338
aF-0.937483549440393
asg8
I6
sg9
I1
sba(ineural
perceptron
p130
(dp131
g3
(lp132
I0
aI0
aI0
aI1
aI0
aI0
aI0
aI0
aI0
aI0
aI1
aI0
aI0
aI0
aI0
aI0
aI0
aI1
aI0
aI0
aI0
aI0
aI0
aI0
aI0
aI1
aI0
aI0
aI0
aI0
aI0
aI0
aI0
aI1
aI1
aI1
aI1
aI0
aI0
aI0
aI0
aI1
aI0
aI0
aI0
aI1
aI0
aI0
aI0
aI1
aI0
aI0
aI0
aI1
aI0
aI0
aI0
aI1
aI1
aI1
aI1
aI0
aI0
aI0
aI0
aI0
aI0
aI0
aI0
aI0
aI0
aI0
aI1
asg5
I00
sg6
(lp133
F0.18859966443048548
aF-0.5704644610260153
aF-0.5047218096016538
aF0.027366009931124858
aF0.2853030469830029
aF-0.3921767847412577
aF-0.16481752539394603
aF0.236258688124685
aF0.23731086067951215
aF0.5562018403761122
aF-0.528308202586788
aF0.01671038238243897
aF-0.5153155793094252
aF0.03318550055474946
aF-0.3965897132398335
aF-0.45982676331817324
aF-0.35478160420426164
aF0.04172901053169012
aF-0.038482768198480094
aF0.2552589914638699
aF0.06476856989980706
aF-0.7905840486602009
aF-0.60973207296398
aF0.05195540244682895
aF-0.047602450499385635
aF-0.2787043036667599
aF0.5355717407836836
aF-0.10339661044820352
aF0.0385961223099386
aF-0.10467031736709874
aF-0.257273953588788
aF-0.596837483731183
aF0.2678415310151261
aF0.5604592745974635
aF0.2931443747545912
aF-0.09531946111528053
aF-0.036479780276040055
aF0.09068760903984305
aF-0.151897110843521
aF-0.029918493238699037
aF0.10372491402143122
aF0.4637093275994023
aF0.14963003409636538
aF-0.33230512472779616
aF0.148162291264002
aF0.08624010773622204
aF-0.047457394387993596
aF0.03899539855378521
aF0.7292476255349638
aF0.27109609684940544
aF0.21762736770092495
aF0.54616377169761
aF0.22960580457984442
aF0.018493112809380072
aF0.36494442382968806
aF-0.08913336453034607
aF-0.3092969546398583
aF0.5313581287896049
aF0.11833059992906032
aF0.06331267877226698
aF-0.09852833943978953
aF-0.43462773265780985
aF0.6466220975106669
aF0.5690796789469911
aF-0.34973604189617713
aF0.05653913039706482
aF0.031159115565033275
aF-0.11200861033475458
aF-0.46665590660147727
aF-0.5542743345048892
aF0.29199800503881757
aF0.3640904887246612
aF-0.81797104546296
asg8
I6
sg9
I1
sba(ineural
perceptron
p134
(dp135
g3
(lp136
I0
aI0
aI0
aI1
aI0
aI0
aI0
aI0
aI0
aI0
aI1
aI0
aI0
aI0
aI0
aI0
aI0
aI1
aI0
aI0
aI0
aI0
aI0
aI0
aI0
aI1
aI0
aI0
aI0
aI0
aI0
aI0
aI0
aI1
aI1
aI1
aI1
aI0
aI0
aI0
aI0
aI1
aI0
aI0
aI0
aI1
aI0
aI0
aI0
aI1
aI0
aI0
aI0
aI1
aI0
aI0
aI0
aI1
aI1
aI1
aI1
aI0
aI0
aI0
aI0
aI0
aI0
aI0
aI0
aI0
aI0
aI0
aI1
asg5
I00
sg6
(lp137
F0.3852273843036409
aF-0.6413102695992956
aF0.008860552792988644
aF-0.37038261672243056
aF-0.17139452536172328
aF0.11757868019407576
aF-0.1010255404445397
aF-0.19030981043291145
aF-0.32767479064083094
aF0.017405018929446226
aF-0.5952463774423518
aF-0.3719345709767728
aF-0.010474499219995912
aF-0.2072632574395443
aF-0.25736997342962237
aF0.027626342852131437
aF0.5807744247570157
aF0.628022918454792
aF-0.08343474715034978
aF-0.40262829757712576
aF0.3042057398365984
aF-0.6038532547239489
aF-0.351844459277612
aF-0.4307340650953195
aF-0.054367512716589766
aF0.17751874212617214
aF0.0643682979960839
aF0.47583116561822203
aF-0.06680841399508854
aF-0.17213859199842474
aF-0.5937029599471492
aF-0.07576728924944232
aF-0.13748552937914588
aF0.36965469215106195
aF0.4211221323627994
aF0.4304861343646669
aF-0.3914359893219095
aF-0.22558416212314775
aF0.13723385876974098
aF-0.17387634592128864
aF0.13996943535356482
aF0.15811061926672268
aF-0.024230359028947924
aF0.186712616891896
aF-0.09051374217396976
aF-0.01214000632111992
aF-0.3043042189716463
aF-0.36712079513163776
aF0.9341571522853344
aF0.14211649463214404
aF0.30094743178697947
aF0.39195248136477767
aF-0.23584464724795257
aF0.3860139684234003
aF0.4144750132681859
aF0.15380777648119762
aF-0.4874188723483984
aF0.11965359120790417
aF0.3567850255154513
aF0.5318663794475613
aF0.015031077196820081
aF-0.4213299633626857
aF0.4086981827872269
aF0.6408657474639671
aF-0.25778869525013987
aF0.20491702250286412
aF-0.35276113073089116
aF-0.30735494818937514
aF0.08025649842728953
aF-0.0664177151031098
aF0.1447990220197491
aF-0.10030434460995538
aF-0.6826794675209441
asg8
I6
sg9
I1
sba(ineural
perceptron
p138
(dp139
g3
(lp140
I0
aI0
aI0
aI1
aI0
aI0
aI0
aI0
aI0
aI0
aI1
aI0
aI0
aI0
aI0
aI0
aI0
aI1
aI0
aI0
aI0
aI0
aI0
aI0
aI0
aI1
aI0
aI0
aI0
aI0
aI0
aI0
aI0
aI1
aI1
aI1
aI1
aI0
aI0
aI0
aI0
aI1
aI0
aI0
aI0
aI1
aI0
aI0
aI0
aI1
aI0
aI0
aI0
aI1
aI0
aI0
aI0
aI1
aI1
aI1
aI1
aI0
aI0
aI0
aI0
aI0
aI0
aI0
aI0
aI0
aI0
aI0
aI1
asg5
I00
sg6
(lp141
F0.1657216072548389
aF-0.25162892635134726
aF0.22340108566928313
aF-0.49147631205582
aF-0.20228733391257922
aF-0.4311299210768422
aF-0.024552889165208414
aF-0.1954141929003275
aF-0.23037794598312591
aF0.331024390926564
aF-0.06342134873332884
aF-0.2673090291084689
aF-0.011336621103432951
aF-0.3172368868596534
aF0.02988292168097233
aF-0.18717672768338367
aF-0.297986062207871
aF-0.2763180162210059
aF0.16434233831530692
aF0.5222245365029338
aF-0.20074529880762584
aF-0.49371504624455825
aF-0.3221947753512957
aF-0.01239067361513083
aF0.2981220975603458
aF0.1414898229154778
aF0.1355907045834856
aF0.17082243646655737
aF-0.09384222648753213
aF-0.1290229710222884
aF-0.5565988151071337
aF-0.44849439278242276
aF0.10913463051739612
aF0.3684948754715649
aF0.32903848314126793
aF0.07688739735560478
aF-0.12631029540051394
aF0.11898302372142384
aF-0.5421283620967295
aF-0.3605142593477065
aF0.42412194430637296
aF0.1735975910931722
aF-0.17828925051232009
aF0.07768188946977438
aF0.18073232939216588
aF-0.22606414923272272
aF-0.2629914596071697
aF-0.2899660972940766
aF0.4088048862529342
aF0.674391015416335
aF0.22218795328652793
aF0.07798932563501058
aF0.49869658961987795
aF-0.07564733530468493
aF0.4987926455600252
aF0.636782998983636
aF-0.14864300851613038
aF0.23933772953264057
aF-0.22659048030940376
aF0.185304587404175
aF0.29683862550163387
aF-0.0014981998383372733
aF0.6054858888367519
aF0.43306974993666403
aF-0.1699610339818146
aF-0.13736962868501185
aF0.27893186072634457
aF-0.49211977158559617
aF-0.8008656150668114
aF0.3251026388071008
aF0.38949055999836735
aF0.4114125288112692
aF-0.7548634849671395
asg8
I6
sg9
I1
sba(ineural
perceptron
p142
(dp143
g3
(lp144
I0
aI0
aI0
aI1
aI0
aI0
aI0
aI0
aI0
aI0
aI1
aI0
aI0
aI0
aI0
aI0
aI0
aI1
aI0
aI0
aI0
aI0
aI0
aI0
aI0
aI1
aI0
aI0
aI0
aI0
aI0
aI0
aI0
aI1
aI1
aI1
aI1
aI0
aI0
aI0
aI0
aI1
aI0
aI0
aI0
aI1
aI0
aI0
aI0
aI1
aI0
aI0
aI0
aI1
aI0
aI0
aI0
aI1
aI1
aI1
aI1
aI0
aI0
aI0
aI0
aI0
aI0
aI0
aI0
aI0
aI0
aI0
aI1
asg5
I00
sg6
(lp145
F-0.0318985063118067
aF-0.040376702586484764
aF-0.22509879392072546
aF-0.27181642324814725
aF0.024754106403238652
aF-0.24732495764889176
aF-0.5461549867709343
aF0.4734464510396369
aF0.014163857512477316
aF0.17780476061087436
aF-0.26929493048064557
aF0.03033897863154535
aF-0.4282861946539971
aF-0.08294157567587168
aF-0.23779556579425873
aF-0.23367657544551249
aF0.5124236305979466
aF0.19131485223125275
aF0.2913897070297957
aF0.45167051584116014
aF-0.07955912900119144
aF-0.7952348905137518
aF-0.8300327710967175
aF0.04962786109944897
aF-0.12444175019340968
aF-0.2845709631111933
aF-0.3571277871613037
aF0.34437749117248184
aF-0.24980343729504426
aF-0.26042029856912796
aF-0.5051771520684294
aF-0.38456451641565303
aF0.41340788393338856
aF0.27586980503846237
aF0.22811927389013537
aF0.02309745786945715
aF0.39655971508227306
aF0.3939718135488691
aF-0.31854561426176264
aF0.20324692890757254
aF0.1306277563705021
aF0.47713702961937243
aF0.2311588221608946
aF0.07925682002692667
aF-0.12463905977982855
aF0.14158899912162876
aF-0.014647269225635227
aF0.34865032058165923
aF0.2268915039185126
aF0.4803848687902408
aF0.44709513249592714
aF0.47395452015936523
aF0.3636221176766342
aF-0.05192041179594997
aF0.6743826719004505
aF-0.2745412253502003
aF-0.14577782226576202
aF0.11360086758544603
aF-0.004400902859540486
aF0.025353852460851912
aF0.11873230132639467
aF-0.5404119344277549
aF0.5807947681928972
aF0.26376548234547526
aF-0.3091590383530034
aF0.5005186527149927
aF0.040831514035165065
aF-0.5741355736403859
aF-0.5061174448560508
aF0.00026273494491895616
aF-0.19350640501125296
aF0.07040461275906439
aF-1.053678021452149
asg8
I6
sg9
I1
sba(ineural
perceptron
p146
(dp147
g3
(lp148
I0
aI0
aI0
aI1
aI0
aI0
aI0
aI0
aI0
aI0
aI1
aI0
aI0
aI0
aI0
aI0
aI0
aI1
aI0
aI0
aI0
aI0
aI0
aI0
aI0
aI1
aI0
aI0
aI0
aI0
aI0
aI0
aI0
aI1
aI1
aI1
aI1
aI0
aI0
aI0
aI0
aI1
aI0
aI0
aI0
aI1
aI0
aI0
aI0
aI1
aI0
aI0
aI0
aI1
aI0
aI0
aI0
aI1
aI1
aI1
aI1
aI0
aI0
aI0
aI0
aI0
aI0
aI0
aI0
aI0
aI0
aI0
aI1
asg5
I00
sg6
(lp149
F0.17267394257335733
aF0.4035766774253041
aF-0.15344763087024807
aF0.2891294767591499
aF0.0306674435368617
aF0.17224317391974087
aF0.05448535980724617
aF0.6422798205303264
aF0.12061784283990125
aF-0.10611911103503811
aF0.4345835353089279
aF0.000878183779587656
aF0.3845673557225189
aF0.32145439997245195
aF0.5081481707161853
aF0.29919691249629154
aF-0.07947009483639345
aF-0.7408814593068506
aF-0.008393958341603676
aF0.3110316952237986
aF0.10117422622595504
aF0.368943736765057
aF0.7723407762186107
aF-0.041451315390639426
aF-0.023961547173655885
aF-0.3179782764903961
aF-0.5749727319807497
aF-0.46421145876254555
aF0.05304402284244858
aF-0.14646588943165312
aF-0.20993560373269535
aF0.29005139562871773
aF0.3343864236567805
aF0.07946341956767476
aF-0.5062481019929399
aF0.09810472093247277
aF-0.1572724128010168
aF0.013552076490048446
aF0.0864198920046147
aF-0.06310375253848327
aF-0.5095192829371812
aF0.05443031348160021
aF0.3000681256048381
aF-0.08062406506932938
aF-0.1864302336412368
aF0.010956624891129176
aF-0.054805616234412824
aF0.27565158591556704
aF0.5861513046566454
aF-0.407217497613168
aF0.7753679915484397
aF0.7376165449428954
aF0.3451905348624932
aF0.13820468831691285
aF-0.4529983729359365
aF-0.08332123322278329
aF0.05081167210566273
aF-0.6128857386969897
aF-0.21650269408308226
aF0.15667844606165562
aF-0.38839470733050435
aF-0.5368317491877539
aF-0.32849172083914235
aF0.307729934969427
aF-0.1341458680252019
aF-0.4404058264152254
aF-0.5259897827837728
aF-0.5075179746877062
aF-0.736213793309563
aF0.05628476131194271
aF-0.2739951181687249
aF-0.04758221229730139
aF-0.8071131063058223
asg8
I7
sg9
I-1
sba(ineural
perceptron
p150
(dp151
g3
(lp152
I0
aI0
aI0
aI1
aI0
aI0
aI0
aI0
aI0
aI0
aI1
aI0
aI0
aI0
aI0
aI0
aI0
aI1
aI0
aI0
aI0
aI0
aI0
aI0
aI0
aI1
aI0
aI0
aI0
aI0
aI0
aI0
aI0
aI1
aI1
aI1
aI1
aI0
aI0
aI0
aI0
aI1
aI0
aI0
aI0
aI1
aI0
aI0
aI0
aI1
aI0
aI0
aI0
aI1
aI0
aI0
aI0
aI1
aI1
aI1
aI1
aI0
aI0
aI0
aI0
aI0
aI0
aI0
aI0
aI0
aI0
aI0
aI1
asg5
I00
sg6
(lp153
F0.18180915963758237
aF0.43775721532082446
aF-0.06057865385676919
aF0.028438900706767845
aF0.18205335959540458
aF0.059285371515356636
aF0.36174017983466705
aF0.1804603445732712
aF-0.6165304846441195
aF-0.1662152316166652
aF0.3210088013869262
aF0.22020963362635299
aF-0.3463831971389867
aF0.4216210356407565
aF0.02547920222504384
aF0.6876743621108476
aF-0.26573478701040276
aF-0.4209729905438856
aF0.018203316230315267
aF0.03529567665988266
aF0.0336820976189245
aF0.23193338294454038
aF0.3445564600219832
aF0.14476567662723688
aF0.23348669838926042
aF-0.7509935332506403
aF-0.36450951695918266
aF-0.4175660459657032
aF0.3802034973530022
aF-0.24860493583692359
aF0.2645756640591809
aF-0.3626523482458884
aF-0.12394918264888508
aF-0.3859014601864512
aF-0.060440968840072565
aF-0.6637190179298463
aF-0.10972439143803402
aF0.1900738086101935
aF0.36269442241437755
aF0.581117862640158
aF-0.5175006797257085
aF0.09998107436343037
aF0.2553427663364174
aF0.4061845842414461
aF0.061715266875437935
aF-0.1057244924597338
aF0.3093092139173418
aF-0.03540022861469208
aF0.26626798662873774
aF0.20157485258241378
aF0.17757510964027245
aF0.8900688875787921
aF-0.13658151478357788
aF-0.2763296614730878
aF-0.3812304983776741
aF0.24966857102007214
aF0.00659611614962536
aF-0.4717822594360296
aF-0.5770594709818524
aF-0.07828111295069617
aF0.12150616995685033
aF0.15059258926627098
aF-0.5782016247255441
aF0.07348067795102785
aF0.43895287820388285
aF-0.167163944513165
aF-0.12315680108224267
aF-0.5661107391518831
aF-0.7507563210756637
aF-0.4805747840408161
aF-0.12230065388594522
aF0.23509316645769154
aF-0.5208326153358622
asg8
I7
sg9
I-1
sba(ineural
perceptron
p154
(dp155
g3
(lp156
I0
aI0
aI0
aI1
aI0
aI0
aI0
aI0
aI0
aI0
aI1
aI0
aI0
aI0
aI0
aI0
aI0
aI1
aI0
aI0
aI0
aI0
aI0
aI0
aI0
aI1
aI0
aI0
aI0
aI0
aI0
aI0
aI0
aI1
aI1
aI1
aI1
aI0
aI0
aI0
aI0
aI1
aI0
aI0
aI0
aI1
aI0
aI0
aI0
aI1
aI0
aI0
aI0
aI1
aI0
aI0
aI0
aI1
aI1
aI1
aI1
aI0
aI0
aI0
aI0
aI0
aI0
aI0
aI0
aI0
aI0
aI0
aI1
asg5
I00
sg6
(lp157
F0.11831581455945377
aF0.08542268463814323
aF0.08726201681411555
aF-0.18065831495559836
aF0.39908476035402385
aF0.4310430773118955
aF0.30980393896270075
aF0.27985925024559394
aF0.10857665662805636
aF0.10794832185969326
aF0.42119091229597105
aF0.11484791817562819
aF0.1395631998686851
aF0.01340749217083662
aF0.09844307799383753
aF0.10692192762644377
aF0.016338571291476676
aF-0.20496348829297092
aF0.08485954315739629
aF0.08747704705749237
aF0.1265719956871165
aF0.32409590877298533
aF0.5710432063377393
aF0.26405009236991994
aF-0.4018184675314934
aF-0.4317117996030885
aF-0.3145351790566565
aF-0.10716865360122295
aF-0.12131183793389295
aF0.001492538267485237
aF0.0043826428203814286
aF-0.47509684832024024
aF0.4378512071640811
aF-0.8128797431398637
aF-0.0851967130475636
aF-0.15247154310206504
aF0.03646404315948505
aF-0.15639437155879735
aF0.04981894456733352
aF0.18615617379628407
aF-0.476641265225175
aF-0.1074731361396206
aF0.10543373392229004
aF0.043311572091701916
aF-0.1257646482063043
aF-0.212635989657808
aF-0.048998199748945065
aF0.22821936369268597
aF0.4612177624371414
aF0.35322803522819146
aF0.16966731038547306
aF0.7295748295058798
aF0.0070376714897086926
aF0.09045042686314461
aF-0.3160851686072942
aF-0.030242791995916188
aF-0.20233318282629484
aF-0.6376077886861212
aF-0.4521573622388303
aF-0.2794510927396766
aF-0.08622382649652938
aF-0.2042716843581923
aF-0.42360362454897893
aF0.04201926007485503
aF-0.11613466668242985
aF0.07676326800848852
aF-0.10267853653201862
aF-0.6333466598730638
aF-0.8108528951222436
aF-0.1819038208427768
aF-0.12158881044863286
aF0.13250824276511192
aF-0.4414439276211971
asg8
I7
sg9
I-1
sba(ineural
perceptron
p158
(dp159
g3
(lp160
I0
aI0
aI0
aI1
aI0
aI0
aI0
aI0
aI0
aI0
aI1
aI0
aI0
aI0
aI0
aI0
aI0
aI1
aI0
aI0
aI0
aI0
aI0
aI0
aI0
aI1
aI0
aI0
aI0
aI0
aI0
aI0
aI0
aI1
aI1
aI1
aI1
aI0
aI0
aI0
aI0
aI1
aI0
aI0
aI0
aI1
aI0
aI0
aI0
aI1
aI0
aI0
aI0
aI1
aI0
aI0
aI0
aI1
aI1
aI1
aI1
aI0
aI0
aI0
aI0
aI0
aI0
aI0
aI0
aI0
aI0
aI0
aI1
asg5
I00
sg6
(lp161
F0.6535129115323334
aF0.4022254078851868
aF-0.05165269148452878
aF-0.3275964303294713
aF0.3753214877144092
aF0.1150102782841564
aF0.09356862401896274
aF0.32598068021223414
aF-0.3396164362298525
aF-0.10923550540509373
aF0.2076736154199413
aF0.05170965854823156
aF0.3183942287362459
aF0.03228824386167896
aF-0.12063657259630374
aF0.13401338255805598
aF0.04603489099576777
aF-0.5735697144004168
aF0.07227958070131378
aF-0.054863867400821636
aF0.24197573885711046
aF0.2088842879718866
aF0.5015935018793065
aF-0.1460805788557043
aF-0.18536851990929681
aF-0.44638041126533334
aF-0.32916806761699935
aF-0.5117729841404812
aF0.32521093909862675
aF0.011500953391796829
aF0.4221698721165801
aF-0.08568434218295917
aF-0.3430458360428028
aF-0.5056236834845036
aF-0.04925227158486603
aF0.1532719527147093
aF-0.2848237959114409
aF0.0013936049647253548
aF-0.23659260269174312
aF0.41182627998143784
aF0.14972346064923941
aF-0.5048223502779238
aF0.11538429772874322
aF0.08587525765420057
aF0.04037401218879878
aF-0.02012983537337736
aF0.05145653726662469
aF0.20590584553146338
aF0.2845147507324105
aF-0.3659927196193663
aF0.3207817099224872
aF0.6717861238373974
aF0.2673181685513548
aF-0.007679363470580743
aF-0.07921766017469367
aF-0.034714426275371815
aF-0.15940854748482372
aF0.09326246077345543
aF-0.2781267237769266
aF-0.12369983271235589
aF-0.2427390105010874
aF-0.281234950153574
aF-0.2641337985208676
aF0.3744548204296808
aF0.2849580539860217
aF-0.11803027629344429
aF-0.3077675996530792
aF-0.3980551895513116
aF-1.0712073131414659
aF-0.22615642011610865
aF-0.29938779325015963
aF0.5467337352519117
aF-0.2103999719494138
asg8
I7
sg9
I-1
sba(ineural
perceptron
p162
(dp163
g3
(lp164
I0
aI0
aI0
aI1
aI0
aI0
aI0
aI0
aI0
aI0
aI1
aI0
aI0
aI0
aI0
aI0
aI0
aI1
aI0
aI0
aI0
aI0
aI0
aI0
aI0
aI1
aI0
aI0
aI0
aI0
aI0
aI0
aI0
aI1
aI1
aI1
aI1
aI0
aI0
aI0
aI0
aI1
aI0
aI0
aI0
aI1
aI0
aI0
aI0
aI1
aI0
aI0
aI0
aI1
aI0
aI0
aI0
aI1
aI1
aI1
aI1
aI0
aI0
aI0
aI0
aI0
aI0
aI0
aI0
aI0
aI0
aI0
aI1
asg5
I00
sg6
(lp165
F0.6030666192947909
aF-0.0003032054669778114
aF0.1374317556189481
aF0.239770298320262
aF0.13831246022793448
aF0.38584164760809625
aF0.20630837308466263
aF0.40495337779587964
aF-0.35318998729096307
aF0.010234113464115322
aF0.10122292875468657
aF0.1064057839628139
aF0.40322770699630106
aF0.3527451610396759
aF0.4090922509035104
aF0.37734543874390103
aF0.11312332671893395
aF-0.31065034359594634
aF0.05888917218137546
aF0.1709048425882589
aF0.13164127447040025
aF-0.06915188945345126
aF0.017880831506141993
aF0.38061738478087637
aF-0.1319901256775991
aF-0.3629119077032589
aF-0.17868513168983058
aF-0.20664290495246126
aF0.21474551877793385
aF-0.11368305328552138
aF0.2577070468126731
aF-0.22755429017671241
aF0.3857584173467751
aF-0.3605457766577418
aF-0.14044919264350803
aF-0.11319058171947234
aF0.025435444642548145
aF0.04428468444838919
aF0.03556118025488322
aF0.1991509650957339
aF-0.3455476561747362
aF0.08182994707871259
aF-0.10693488480954184
aF-0.10136929576092296
aF-0.058604960586922564
aF-0.43457512046575286
aF-0.11545917334685614
aF0.4056983461336242
aF-0.24548800719142347
aF-0.27093765330489317
aF0.30765698723085744
aF0.5566889910052127
aF0.13976310000637665
aF0.07102140885717333
aF-0.5388410092255925
aF-0.3949114632000692
aF0.2301541556012974
aF0.0355483521749277
aF-0.34982749039713845
aF-0.2199918434087384
aF-0.2929143001350071
aF0.19025887336848332
aF-0.13637383526080188
aF-0.06964189887933404
aF-0.11992072579892944
aF0.06380526353659988
aF-0.04171245839954721
aF-0.4264087570026498
aF-0.9538992486651728
aF-0.4396852967326078
aF-0.34886734354241433
aF0.0056942475295158265
aF-0.46186462333461054
asg8
I7
sg9
I-1
sba(ineural
perceptron
p166
(dp167
g3
(lp168
I0
aI0
aI0
aI1
aI0
aI0
aI0
aI0
aI0
aI0
aI1
aI0
aI0
aI0
aI0
aI0
aI0
aI1
aI0
aI0
aI0
aI0
aI0
aI0
aI0
aI1
aI0
aI0
aI0
aI0
aI0
aI0
aI0
aI1
aI1
aI1
aI1
aI0
aI0
aI0
aI0
aI1
aI0
aI0
aI0
aI1
aI0
aI0
aI0
aI1
aI0
aI0
aI0
aI1
aI0
aI0
aI0
aI1
aI1
aI1
aI1
aI0
aI0
aI0
aI0
aI0
aI0
aI0
aI0
aI0
aI0
aI0
aI1
asg5
I00
sg6
(lp169
F0.19105039690025558
aF0.05217338079720857
aF0.016668794255499973
aF-0.36968710393741566
aF-0.03741115297360721
aF-0.08689243425526505
aF-0.4094224945946088
aF-0.05210897597688724
aF0.0200040965047512
aF-0.03069534766732142
aF-0.3524551965227929
aF0.03704889998898345
aF-0.06339581849916465
aF0.1147611547771142
aF-0.014903029619930872
aF0.2484483701594448
aF-0.05191049626706273
aF0.06617384203689726
aF-0.44154100778471395
aF-0.13772609984063838
aF0.09420514880303829
aF-0.4314308382262071
aF0.10172729249428046
aF0.6398623914363284
aF0.007482944246132224
aF0.0021959985667213064
aF0.8051052847801341
aF0.22554882699763384
aF-0.5085651961472795
aF0.28878460544147044
aF0.35025632185762157
aF0.08090193351555085
aF-0.1284246802442862
aF-0.07470752168209481
aF0.6951707903043504
aF0.05005281615042767
aF0.1397067077288902
aF-0.24977818476820027
aF0.05681060154636865
aF-0.22479925704228315
aF0.26799427767124273
aF0.007978545335751881
aF0.4296983187186292
aF-0.3196084059499307
aF0.3605264444747859
aF-0.26205386740977743
aF-0.22967961675955267
aF-0.4769613888858037
aF0.4156291348632773
aF0.44350289695103584
aF0.007559038904808753
aF-0.1408674812587833
aF-0.14650428076340288
aF-0.13145228726391972
aF-0.4416614722776092
aF-0.11265442924779419
aF-0.22102922123345448
aF0.40840970919228636
aF-0.3751099573811034
aF0.5100616273662196
aF-0.3795169367905171
aF0.12328301234844914
aF0.168162287112165
aF0.1250339510483641
aF0.25920870621511727
aF0.09629779898317986
aF0.17630889794416005
aF-0.2112907487898325
aF0.10379534615086569
aF0.23499541576528318
aF-0.09862867357596025
aF-0.3694304971377724
aF-1.003739025161057
asg8
I8
sg9
I-1
sba(ineural
perceptron
p170
(dp171
g3
(lp172
I0
aI0
aI0
aI1
aI0
aI0
aI0
aI0
aI0
aI0
aI1
aI0
aI0
aI0
aI0
aI0
aI0
aI1
aI0
aI0
aI0
aI0
aI0
aI0
aI0
aI1
aI0
aI0
aI0
aI0
aI0
aI0
aI0
aI1
aI1
aI1
aI1
aI0
aI0
aI0
aI0
aI1
aI0
aI0
aI0
aI1
aI0
aI0
aI0
aI1
aI0
aI0
aI0
aI1
aI0
aI0
aI0
aI1
aI1
aI1
aI1
aI0
aI0
aI0
aI0
aI0
aI0
aI0
aI0
aI0
aI0
aI0
aI1
asg5
I00
sg6
(lp173
F-0.21194906858562734
aF-0.10208493489720014
aF-0.38008996517652105
aF-0.4107343162889684
aF0.07199345206101603
aF-0.020657244735345293
aF-0.14328223553614855
aF0.3449495248272284
aF-0.11836030471126412
aF-0.2182782138688949
aF-0.37643441527456245
aF0.001009051497021747
aF-0.09515384033714377
aF0.42085547474743623
aF-0.030765745215182178
aF0.3139845669569088
aF0.3245645154621132
aF0.3629735597454974
aF-0.11795535077867465
aF0.19597028770441602
aF-0.16650379593554812
aF-0.4495735914312162
aF-0.10348970100264074
aF0.47352746238231813
aF0.15992881200938505
aF-0.10974472090863056
aF0.6131264998252228
aF0.17584595081553334
aF-0.34425200596184413
aF0.3936261527972792
aF0.29436266601374195
aF0.19626009378831485
aF-0.4313573695428373
aF-0.12524423478399246
aF0.6147077731571522
aF0.08325851364975743
aF-0.04759746552092395
aF0.09106553119302416
aF-0.12619857121912711
aF-0.1701200075186564
aF-0.05232451658071691
aF0.028576834383059958
aF0.2977164453271708
aF-0.07327004981528694
aF0.19773212676494364
aF-0.29966472874432515
aF-0.2644092818138568
aF-0.15634169598275519
aF0.5861330150786384
aF0.5210086665862772
aF0.04326508723494661
aF-0.3069474978038621
aF-0.4398707683051514
aF-0.25215840991654764
aF-0.4167940547290957
aF-0.342383443701426
aF-0.07635110375446164
aF0.21077168037934663
aF-0.39135698233334526
aF0.2867085716459272
aF0.1696629410229137
aF-0.06526348103944592
aF0.18654495045664476
aF-0.18467849243614137
aF0.16955777476410064
aF0.18093098608026048
aF-0.027937563383705944
aF0.3744770124937069
aF0.05526781421890249
aF0.13009360973477652
aF0.026628841888749078
aF-0.09066993192877279
aF-0.8503161604085168
asg8
I8
sg9
I-1
sba(ineural
perceptron
p174
(dp175
g3
(lp176
I0
aI0
aI0
aI1
aI0
aI0
aI0
aI0
aI0
aI0
aI1
aI0
aI0
aI0
aI0
aI0
aI0
aI1
aI0
aI0
aI0
aI0
aI0
aI0
aI0
aI1
aI0
aI0
aI0
aI0
aI0
aI0
aI0
aI1
aI1
aI1
aI1
aI0
aI0
aI0
aI0
aI1
aI0
aI0
aI0
aI1
aI0
aI0
aI0
aI1
aI0
aI0
aI0
aI1
aI0
aI0
aI0
aI1
aI1
aI1
aI1
aI0
aI0
aI0
aI0
aI0
aI0
aI0
aI0
aI0
aI0
aI0
aI1
asg5
I00
sg6
(lp177
F-0.17358083363170884
aF0.13292501516772454
aF-0.36550111913412076
aF-0.16019279471683281
aF-0.20093611464840352
aF0.15662474800743556
aF-0.18850488430947387
aF0.09723296269493484
aF0.2539305062029602
aF-0.13710729818581185
aF-0.29699815513262195
aF0.26806847879397533
aF-0.07365853242161256
aF0.17275107330017692
aF-0.07582644585273866
aF0.05742258289459934
aF0.07982114703174935
aF0.23376198287630137
aF-0.013977663135191696
aF-0.26367319558441465
aF-0.07859053435017571
aF-0.4157940653819886
aF0.1434376308114818
aF0.37165586717882193
aF-0.20758941014194407
aF0.04586732220588377
aF0.3834818747891282
aF0.4103196085174612
aF-0.4258293906998154
aF0.2981098277250086
aF-0.07876865869117859
aF0.34211124453582864
aF-0.7739477564473699
aF0.07856395892566892
aF0.2258185713774964
aF-0.04001994851078046
aF0.19464238213432758
aF0.136065310826937
aF-0.06107273197620222
aF0.21684241741791682
aF0.31841149887576037
aF-0.10093466816669353
aF0.5736450127664575
aF-0.3797794081292465
aF0.41763644589947924
aF-0.2749290410342622
aF-0.25967333845800655
aF-0.38196498750547914
aF0.6937219998633103
aF0.6202138308078726
aF0.23544015555815892
aF-0.30933418633519516
aF-0.3221679386837465
aF-0.18928407530689229
aF-0.5817605593593209
aF-0.19329280299922488
aF-0.08079064946302605
aF0.05421858526559398
aF-0.33106833625646215
aF0.31699338297458046
aF0.18157231921812267
aF-0.1715843040037054
aF0.32255025453386144
aF-0.37301866055359056
aF0.1321297614655404
aF0.15366122273564367
aF0.022835783077342398
aF0.267266045878617
aF-0.1628626310234448
aF0.3849591106355664
aF-0.011855115511313383
aF-0.3434714289531235
aF-0.9544068253871758
asg8
I8
sg9
I-1
sba(ineural
perceptron
p178
(dp179
g3
(lp180
I0
aI0
aI0
aI1
aI0
aI0
aI0
aI0
aI0
aI0
aI1
aI0
aI0
aI0
aI0
aI0
aI0
aI1
aI0
aI0
aI0
aI0
aI0
aI0
aI0
aI1
aI0
aI0
aI0
aI0
aI0
aI0
aI0
aI1
aI1
aI1
aI1
aI0
aI0
aI0
aI0
aI1
aI0
aI0
aI0
aI1
aI0
aI0
aI0
aI1
aI0
aI0
aI0
aI1
aI0
aI0
aI0
aI1
aI1
aI1
aI1
aI0
aI0
aI0
aI0
aI0
aI0
aI0
aI0
aI0
aI0
aI0
aI1
asg5
I00
sg6
(lp181
F-0.05971561877649269
aF-0.16198806120670187
aF0.16158563899997405
aF-0.7142669928648514
aF-0.2826708307714705
aF0.09631860872460771
aF-0.1860276166620214
aF0.346628914551389
aF0.26754935827236836
aF0.04003379028906885
aF-0.47654575315307457
aF0.25926324220762575
aF-0.24351307695423133
aF0.394427847973955
aF-0.0899157008235365
aF0.06057440152516992
aF0.19395471857113586
aF0.24142969846375176
aF-0.23916488523854354
aF-0.05936342951291153
aF0.016000998332620617
aF-0.42811975006959146
aF0.006818375879016854
aF0.7376294446082915
aF-0.09135978819079502
aF-0.2208197153935515
aF1.1346719764900273
aF-0.03397179237765145
aF-0.1643517208152563
aF0.38169943653466176
aF0.4491962507534123
aF0.38142062697898405
aF-0.21900304106588647
aF0.005626270751992242
aF0.5533341674341024
aF0.02845672241033963
aF0.22625780995276884
aF-0.02146864173694023
aF-0.03859790739130056
aF-0.20234589371243691
aF0.16626908091745193
aF0.05708876171217048
aF0.0590226881783274
aF0.020544146643399572
aF0.12792152478567956
aF-0.2717147131700217
aF-0.4454519418308166
aF-0.516176907289247
aF0.2888299481817626
aF0.6958344111235933
aF0.14720494000474976
aF-0.23693350334581245
aF-0.5151140882295424
aF-0.12911337802976394
aF-0.26577803763140295
aF-0.07837534968218196
aF-0.06424302893016133
aF0.07618718839009302
aF-0.3356235857987526
aF0.5973518820805179
aF-0.08020195018706844
aF-0.32014842863490184
aF0.29981684347774695
aF-0.13987812359754231
aF-0.2382431192010411
aF0.4159193680277318
aF0.07280050564036054
aF0.271750021184768
aF0.15787074108654778
aF0.25888333250008544
aF-0.29594015227403625
aF-0.24899562487944624
aF-1.3977246649134727
asg8
I8
sg9
I-1
sba(ineural
perceptron
p182
(dp183
g3
(lp184
I0
aI0
aI0
aI1
aI0
aI0
aI0
aI0
aI0
aI0
aI1
aI0
aI0
aI0
aI0
aI0
aI0
aI1
aI0
aI0
aI0
aI0
aI0
aI0
aI0
aI1
aI0
aI0
aI0
aI0
aI0
aI0
aI0
aI1
aI1
aI1
aI1
aI0
aI0
aI0
aI0
aI1
aI0
aI0
aI0
aI1
aI0
aI0
aI0
aI1
aI0
aI0
aI0
aI1
aI0
aI0
aI0
aI1
aI1
aI1
aI1
aI0
aI0
aI0
aI0
aI0
aI0
aI0
aI0
aI0
aI0
aI0
aI1
asg5
I00
sg6
(lp185
F0.2510640825932188
aF-0.21916457070677392
aF-0.10524404817166731
aF-0.3396585407905015
aF0.014317771289544399
aF-0.20484775546036113
aF-0.06230065029362643
aF-0.32449540093625495
aF-0.06060495054404824
aF0.012317243638592688
aF-0.5339028578498599
aF0.02202578449394892
aF0.004540354621560043
aF0.48627412514814805
aF-0.13855924094371525
aF0.18044698816893623
aF0.11214286913127726
aF0.24600283355133493
aF-0.21265727858221256
aF-0.25374103675289694
aF0.03250162063673313
aF-0.4706382267831708
aF0.01988611156102176
aF0.8193431249448689
aF0.19400936889645778
aF-0.24946857002837322
aF0.7775121602462582
aF-0.07234685740914212
aF-0.00611901928453968
aF0.5165161624524862
aF0.2669327592473577
aF0.12488074579983051
aF-0.450598690168186
aF0.017502444162300224
aF0.7601929300048964
aF-0.05936267971184317
aF0.2384519326409106
aF-0.230219450833184
aF0.029892062011636012
aF-0.2712663810721545
aF0.03260921249980887
aF0.28017112716724946
aF0.4080693605599467
aF-0.3305268127950148
aF0.2076220709861942
aF-0.2961510920257098
aF-0.43983316919684456
aF-0.09431646112282407
aF0.35273618068779355
aF0.301455566888629
aF0.17181226659094728
aF0.047710247493361974
aF-0.36463971236035886
aF0.2535987299758069
aF-0.18853808665581817
aF-0.33117894226733424
aF-0.0009462148525054073
aF0.06217934218212773
aF-0.32445353703428037
aF0.21504439479012705
aF0.01663602267825003
aF-0.17144417142398388
aF0.3093578242608648
aF-0.22245372987615925
aF0.06675463422626983
aF-0.001708856765697521
aF0.5029528724221846
aF0.15290800421625464
aF-0.15556910370401192
aF0.23071431087171182
aF0.0020100188103913744
aF0.12046198254854863
aF-1.218041773042314
asg8
I8
sg9
I-1
sba(ineural
perceptron
p186
(dp187
g3
(lp188
I0
aI0
aI0
aI1
aI0
aI0
aI0
aI0
aI0
aI0
aI1
aI0
aI0
aI0
aI0
aI0
aI0
aI1
aI0
aI0
aI0
aI0
aI0
aI0
aI0
aI1
aI0
aI0
aI0
aI0
aI0
aI0
aI0
aI1
aI1
aI1
aI1
aI0
aI0
aI0
aI0
aI1
aI0
aI0
aI0
aI1
aI0
aI0
aI0
aI1
aI0
aI0
aI0
aI1
aI0
aI0
aI0
aI1
aI1
aI1
aI1
aI0
aI0
aI0
aI0
aI0
aI0
aI0
aI0
aI0
aI0
aI0
aI1
asg5
I00
sg6
(lp189
F-0.1916994678578959
aF0.46193301301433143
aF-0.26871553593856845
aF0.44371796938073627
aF-0.15889427366505995
aF-0.19922920385698625
aF-0.3387249507361338
aF-0.15573384450926103
aF-0.08538028502244743
aF-0.32658729395647956
aF-0.01295408646939725
aF-0.6885194835665641
aF-0.18981756381254222
aF0.04704497940393007
aF0.078672943275783
aF0.34921514254962527
aF0.2876292277863811
aF0.415027917558799
aF0.38294507962929836
aF0.1068014339319212
aF-0.2884677717463001
aF-0.03971388026378954
aF0.2287386558144449
aF0.5469261729456775
aF-0.24805271893569705
aF0.2859560770421191
aF0.6319514923334171
aF0.08482192985810105
aF0.33306859629115215
aF-0.009057751473475047
aF0.21536006823520942
aF0.1684195774522639
aF-0.5325548850380384
aF-0.33184499677467977
aF0.30839254729364274
aF0.18030799997614566
aF-0.10500156501354384
aF-0.09550858507841661
aF0.331719139407049
aF-0.31757321186391746
aF-0.46166508675818724
aF-0.1783521060051969
aF-0.015518544855033279
aF0.013503695059161856
aF-0.21466734403128346
aF0.0888537387663465
aF-0.364940290573295
aF-0.06663308668809333
aF0.5808855181421079
aF-0.1186871852406439
aF-0.1017539130936924
aF0.4385602284668557
aF0.4165867065613287
aF0.27321365679324805
aF0.3033112094570519
aF0.33437289227428935
aF-0.3291940091877683
aF-0.16834947897616373
aF-0.24553621007015317
aF-0.16324677136662838
aF0.2809833851076934
aF0.1659706434819991
aF-0.46968886730921433
aF-0.24960741588294358
aF0.16524883342131305
aF-0.3245100678959805
aF-0.24413652080561002
aF-0.07069284776532779
aF-0.49108121557249385
aF-0.015099732252589027
aF-0.45686057734227836
aF0.4475014162365263
aF-1.0862494880988407
asg8
I9
sg9
I-1
sba(ineural
perceptron
p190
(dp191
g3
(lp192
I0
aI0
aI0
aI1
aI0
aI0
aI0
aI0
aI0
aI0
aI1
aI0
aI0
aI0
aI0
aI0
aI0
aI1
aI0
aI0
aI0
aI0
aI0
aI0
aI0
aI1
aI0
aI0
aI0
aI0
aI0
aI0
aI0
aI1
aI1
aI1
aI1
aI0
aI0
aI0
aI0
aI1
aI0
aI0
aI0
aI1
aI0
aI0
aI0
aI1
aI0
aI0
aI0
aI1
aI0
aI0
aI0
aI1
aI1
aI1
aI1
aI0
aI0
aI0
aI0
aI0
aI0
aI0
aI0
aI0
aI0
aI0
aI1
asg5
I00
sg6
(lp193
F-0.3625658151726526
aF0.5466482360493711
aF-0.04148407098091614
aF-0.08753179418780899
aF-0.1499524565664236
aF-0.007048951276380895
aF-0.18666611215266093
aF0.3835548855054324
aF-0.03748345004352753
aF-0.25157501107291735
aF0.07566716974816977
aF-0.4739895330349396
aF-0.2531168319868218
aF0.054087666360426834
aF-0.11453250955578316
aF0.006505320746768746
aF0.5318711661479981
aF0.37737577772229014
aF0.5672363745864497
aF0.45196126463664454
aF-0.15275678106001087
aF-0.009594512765989056
aF0.5899112100735081
aF0.7488300917652917
aF-0.09251313090845029
aF0.36381676016561226
aF0.4417609066938604
aF0.1244727050472086
aF0.16816092283656228
aF0.15377016670287538
aF0.19304568511572914
aF-0.2246396374777616
aF-0.3615405386255329
aF-0.1709539992176663
aF0.25065393791673074
aF0.17416670719719307
aF-0.18760172267305775
aF0.04395296045477029
aF-0.281941319249255
aF-0.0484245229982713
aF0.19054593266648953
aF-0.5977783284228928
aF-0.16026922357234352
aF-0.3658016980215925
aF-0.044665883388329206
aF0.10828638447433912
aF0.2228400198778479
aF0.18341931913943066
aF-0.1563515218147827
aF-0.21256931729165757
aF-0.2932741982191718
aF0.3375705649086119
aF-0.0496107676672225
aF0.4625819933471633
aF-0.05490937269457108
aF-0.1938336722107498
aF-0.2920213153936251
aF0.11879142118145643
aF-0.24290890813508695
aF0.15692229844148678
aF-0.054371628884956946
aF-0.17492778986223878
aF-0.277573922944067
aF0.23925754058310558
aF0.015365263427801593
aF-0.24831869997409065
aF0.2170635184540291
aF-0.21260181059619482
aF0.11246091293810496
aF-0.6064053031821796
aF-0.5276523484703568
aF0.24187692541539554
aF-1.1490407009198282
asg8
I9
sg9
I-1
sba(ineural
perceptron
p194
(dp195
g3
(lp196
I0
aI0
aI0
aI1
aI0
aI0
aI0
aI0
aI0
aI0
aI1
aI0
aI0
aI0
aI0
aI0
aI0
aI1
aI0
aI0
aI0
aI0
aI0
aI0
aI0
aI1
aI0
aI0
aI0
aI0
aI0
aI0
aI0
aI1
aI1
aI1
aI1
aI0
aI0
aI0
aI0
aI1
aI0
aI0
aI0
aI1
aI0
aI0
aI0
aI1
aI0
aI0
aI0
aI1
aI0
aI0
aI0
aI1
aI1
aI1
aI1
aI0
aI0
aI0
aI0
aI0
aI0
aI0
aI0
aI0
aI0
aI0
aI1
asg5
I00
sg6
(lp197
F-0.18396488292821145
aF0.1851504598462672
aF-0.25077967080564945
aF0.22173563048830774
aF0.014554586046543725
aF0.3087999986943003
aF-0.45961351338232803
aF0.247156443308042
aF0.2750395190863981
aF-0.2890948081467083
aF0.09347402174376859
aF-0.3224986191231013
aF-0.22815319682366592
aF0.31829961742716695
aF-0.048935662002859176
aF0.2730017089333524
aF0.5380801521775029
aF0.42937654904664524
aF0.5820317534896639
aF-0.1879723102162901
aF-0.10579566445327432
aF-0.3496808262376263
aF0.5516523774067449
aF0.14956693161988846
aF-0.25492827760575804
aF0.2525140087206321
aF0.7672744701667089
aF0.022303064470932266
aF0.25508151950200486
aF-0.09278965735794828
aF0.1725627251022589
aF0.0998645424222335
aF-0.2951090687601131
aF0.07449909608802328
aF-0.15679657949545292
aF0.21018922768801124
aF-0.274116771027863
aF0.3060058367320424
aF0.12281824449166674
aF-0.1285938345911167
aF0.0648014823727292
aF-0.1439059710415585
aF-0.10685888410902632
aF-0.11148016333083773
aF-0.2657339696127749
aF-0.2638083834545064
aF-0.3558198958454637
aF0.4980874889947722
aF-0.2624322551942406
aF0.050970238682232605
aF-0.35128044001154257
aF0.4170674651618018
aF-0.014931721665251505
aF0.09716259649969457
aF-0.284753106955721
aF-0.23100720854384524
aF0.0067064750804473675
aF-0.0876391316910764
aF-0.13738254905560904
aF-0.31422735486473335
aF-0.12586599935865214
aF-0.1184875632886744
aF-0.12627517738810964
aF-0.24350614787775818
aF0.4236032330389876
aF0.03556644160483048
aF-0.14051833514179785
aF-0.13442795908719724
aF-0.4839245831189849
aF-0.4257715007142955
aF-0.5008144292920634
aF0.2061732957290495
aF-0.7570862010720024
asg8
I9
sg9
I-1
sba(ineural
perceptron
p198
(dp199
g3
(lp200
I0
aI0
aI0
aI1
aI0
aI0
aI0
aI0
aI0
aI0
aI1
aI0
aI0
aI0
aI0
aI0
aI0
aI1
aI0
aI0
aI0
aI0
aI0
aI0
aI0
aI1
aI0
aI0
aI0
aI0
aI0
aI0
aI0
aI1
aI1
aI1
aI1
aI0
aI0
aI0
aI0
aI1
aI0
aI0
aI0
aI1
aI0
aI0
aI0
aI1
aI0
aI0
aI0
aI1
aI0
aI0
aI0
aI1
aI1
aI1
aI1
aI0
aI0
aI0
aI0
aI0
aI0
aI0
aI0
aI0
aI0
aI0
aI1
asg5
I00
sg6
(lp201
F-0.37993594412621146
aF-0.00993147171261733
aF0.11912950371264548
aF0.00783107307649495
aF0.019146753084095348
aF-0.13514679693258952
aF0.0784157579702701
aF0.04702911435877369
aF0.3409018509273076
aF-0.17460078525891531
aF0.055627471940437156
aF-0.18792867902179855
aF-0.4253542753794196
aF0.5150558041617551
aF-0.2983191810769813
aF0.4684085588850577
aF-0.028475870519265967
aF0.5875194443434893
aF0.1688948109265373
aF-0.17986752670404316
aF0.20421881951179408
aF0.30515494321312375
aF0.5151104905545102
aF0.20189884330870628
aF0.0677279290010512
aF0.2707152971834363
aF0.7773786199804527
aF0.5440268599196963
aF-0.10806445138223496
aF-0.10277700274012488
aF-0.07802623561542806
aF-0.16512904354929164
aF-0.418770966834467
aF-0.30700723339470604
aF0.196652823844759
aF-0.06514155182851102
aF-0.137971677184704
aF0.22064677761489054
aF0.35714391248947197
aF-0.15734659317083483
aF0.20317791125945525
aF-0.5572880046165689
aF-0.022471810830347595
aF-0.014118716961557119
aF-0.22773067611366477
aF-0.2127280906558136
aF0.3203919682907671
aF0.1733438950910201
aF-0.08886266180243999
aF-0.06823400751564603
aF-0.09850791257192103
aF0.4069664581857494
aF-0.29806941897094247
aF-0.06958853550685291
aF-0.32580569518913843
aF-0.04318569620423765
aF0.035303931487877596
aF0.050285185040302105
aF-0.3875820806738565
aF-0.19885347798089623
aF0.11723323565866513
aF0.25829718706779603
aF-0.5199132296097093
aF0.15675221727675595
aF0.41087312124888964
aF-0.1621682909217407
aF-0.34391943917471246
aF-0.09967680208806705
aF-0.4928935409515508
aF-0.23636032636133222
aF-0.4708987715443463
aF0.4078841887065917
aF-1.0699697894385938
asg8
I9
sg9
I-1
sba(ineural
perceptron
p202
(dp203
g3
(lp204
I0
aI0
aI0
aI1
aI0
aI0
aI0
aI0
aI0
aI0
aI1
aI0
aI0
aI0
aI0
aI0
aI0
aI1
aI0
aI0
aI0
aI0
aI0
aI0
aI0
aI1
aI0
aI0
aI0
aI0
aI0
aI0
aI0
aI1
aI1
aI1
aI1
aI0
aI0
aI0
aI0
aI1
aI0
aI0
aI0
aI1
aI0
aI0
aI0
aI1
aI0
aI0
aI0
aI1
aI0
aI0
aI0
aI1
aI1
aI1
aI1
aI0
aI0
aI0
aI0
aI0
aI0
aI0
aI0
aI0
aI0
aI0
aI1
asg5
I00
sg6
(lp205
F0.2214998672971525
aF-0.08352553002994777
aF-0.05920638275744727
aF0.1850664336329998
aF0.2204525803481498
aF-0.05409050665228854
aF-0.2646761950093828
aF-0.08280822333062743
aF0.21772546840214607
aF0.09118834539159335
aF-0.1428669684315314
aF-0.5364897704975289
aF-0.23356805046514076
aF0.16658957949489353
aF-0.26645500569060965
aF0.45100769088206427
aF0.36065565494081553
aF0.5263251874540364
aF0.5101251299722602
aF0.36031726517239504
aF-0.18069054739640136
aF0.1022051919790301
aF0.42881057720229365
aF0.37981306166110906
aF-0.5025219295507595
aF0.23094298804370447
aF0.6056950793748884
aF0.5601538084618711
aF-0.06621821165277024
aF-0.22924197839382515
aF0.2498053767103308
aF0.0026326980752386306
aF-0.03263751326869703
aF-0.30289256723902414
aF-0.020561723459313484
aF0.040412782493193716
aF-0.1090521839729278
aF0.144284603504177
aF0.44113556691554134
aF-0.18577114704795583
aF-0.014660423819426147
aF-0.2720643157576994
aF-0.29387489270012374
aF-0.05842915957198658
aF-0.23694985342838823
aF0.08256037110937463
aF-0.4627120373140564
aF0.2836631660508627
aF-0.22785648053438584
aF-0.4648316610115646
aF-0.06532747617337888
aF-0.1311042307460635
aF-0.15920018036201902
aF0.06528244934278184
aF-0.1983408668092119
aF0.06026329361810234
aF-0.035784741898977984
aF0.03399004925112682
aF0.14801791274023607
aF0.1826323164259065
aF-0.2507319951464904
aF-0.2548201197961842
aF-0.016455877120793706
aF-0.02489783452343657
aF0.2718304872947461
aF0.10209390239648727
aF-0.3469143129865989
aF-0.3257165548860871
aF-0.03247190615105068
aF-0.6637139630819341
aF-0.46425434298601875
aF-0.4255295749054274
aF-0.8564471026904878
asg8
I9
sg9
I-1
sba.